ARM Linker, 4.1 [Build 567] [Standard]

==============================================================================

Section Cross References

    main.o(i.App_TaskCreate) refers to uctsk_ssnp_tbc.o(i.App_SSNPTaskCreate) for App_SSNPTaskCreate
    main.o(i.App_TaskStart) refers to os_cpu_c.o(i.OS_CPU_SysTickInit) for OS_CPU_SysTickInit
    main.o(i.App_TaskStart) refers to os_core.o(i.OSStatInit) for OSStatInit
    main.o(i.App_TaskStart) refers to main.o(i.App_TaskCreate) for App_TaskCreate
    main.o(i.App_TaskStart) refers to os_time.o(i.OSTimeDlyHMSM) for OSTimeDlyHMSM
    main.o(i.main) refers to cpu_a.o(.text) for CPU_IntDis
    main.o(i.main) refers to os_core.o(i.OSInit) for OSInit
    main.o(i.main) refers to os_task.o(i.OSTaskCreateExt) for OSTaskCreateExt
    main.o(i.main) refers to os_task.o(i.OSTaskNameSet) for OSTaskNameSet
    main.o(i.main) refers to os_core.o(i.OSStart) for OSStart
    main.o(i.main) refers to main.o(.bss) for App_TaskStartStk
    main.o(i.main) refers to main.o(i.App_TaskStart) for App_TaskStart
    stm32f10x_it.o(i.SysTick_Handler) refers to os_cpu_a.o(.text) for OS_CPU_SR_Save
    stm32f10x_it.o(i.SysTick_Handler) refers to os_core.o(i.OSTimeTick) for OSTimeTick
    stm32f10x_it.o(i.SysTick_Handler) refers to os_core.o(i.OSIntExit) for OSIntExit
    stm32f10x_it.o(i.SysTick_Handler) refers to os_core.o(.data) for OSIntNesting
    uctsk_ssnp_tbc.o(i.App_SSNPTaskCreate) refers to os_task.o(i.OSTaskCreate) for OSTaskCreate
    uctsk_ssnp_tbc.o(i.App_SSNPTaskCreate) refers to uctsk_ssnp_tbc.o(.bss) for AppSSNPTaskStk
    uctsk_ssnp_tbc.o(i.App_SSNPTaskCreate) refers to uctsk_ssnp_tbc.o(i.uctsk_SSNP_TBC_new) for uctsk_SSNP_TBC_new
    uctsk_ssnp_tbc.o(i.Delay) refers to os_time.o(i.OSTimeDly) for OSTimeDly
    uctsk_ssnp_tbc.o(i.NVIC_Configuration_TIM5) refers to misc.o(i.NVIC_PriorityGroupConfig) for NVIC_PriorityGroupConfig
    uctsk_ssnp_tbc.o(i.NVIC_Configuration_TIM5) refers to misc.o(i.NVIC_Init) for NVIC_Init
    uctsk_ssnp_tbc.o(i.TIM5_IRQHandler) refers to stm32f10x_tim.o(i.TIM_GetITStatus) for TIM_GetITStatus
    uctsk_ssnp_tbc.o(i.TIM5_IRQHandler) refers to stm32f10x_tim.o(i.TIM_ClearITPendingBit) for TIM_ClearITPendingBit
    uctsk_ssnp_tbc.o(i.TIM5_IRQHandler) refers to tbc.o(.bss) for tbc
    uctsk_ssnp_tbc.o(i.TIM5_Init) refers to stm32f10x_rcc.o(i.RCC_APB1PeriphClockCmd) for RCC_APB1PeriphClockCmd
    uctsk_ssnp_tbc.o(i.TIM5_Init) refers to stm32f10x_tim.o(i.TIM_TimeBaseInit) for TIM_TimeBaseInit
    uctsk_ssnp_tbc.o(i.TIM5_Init) refers to stm32f10x_tim.o(i.TIM_ITConfig) for TIM_ITConfig
    uctsk_ssnp_tbc.o(i.TIM5_Init) refers to stm32f10x_tim.o(i.TIM_Cmd) for TIM_Cmd
    uctsk_ssnp_tbc.o(i.TIM5_delay_us) refers to stm32f10x_tim.o(i.TIM_SetCounter) for TIM_SetCounter
    uctsk_ssnp_tbc.o(i.TIM5_delay_us) refers to stm32f10x_tim.o(i.TIM_GetCounter) for TIM_GetCounter
    uctsk_ssnp_tbc.o(i.app_init) refers to sys_arch.o(i.sys_mbox_new) for sys_mbox_new
    uctsk_ssnp_tbc.o(i.app_init) refers to printfa.o(i.__0printf) for __2printf
    uctsk_ssnp_tbc.o(i.app_init) refers to uctsk_ssnp_tbc.o(i.TIM5_Init) for TIM5_Init
    uctsk_ssnp_tbc.o(i.app_init) refers to tbc.o(i.TBC_init) for TBC_init
    uctsk_ssnp_tbc.o(i.app_init) refers to upcomputer.o(i.init_queue) for init_queue
    uctsk_ssnp_tbc.o(i.app_init) refers to uctsk_ssnp_tbc.o(.data) for streaming_data_recv_mbox
    uctsk_ssnp_tbc.o(i.average_time) refers to printfa.o(i.__0printf) for __2printf
    uctsk_ssnp_tbc.o(i.avertime_new) refers to dflti.o(.text) for __aeabi_i2d
    uctsk_ssnp_tbc.o(i.avertime_new) refers to sqrt.o(i.sqrt) for sqrt
    uctsk_ssnp_tbc.o(i.avertime_new) refers to printfa.o(i.__0printf) for __2printf
    uctsk_ssnp_tbc.o(i.avertime_new) refers to uctsk_ssnp_tbc.o(.constdata) for .constdata
    uctsk_ssnp_tbc.o(i.fputc) refers to stm32f10x_usart.o(i.USART_SendData) for USART_SendData
    uctsk_ssnp_tbc.o(i.fputc) refers to stm32f10x_usart.o(i.USART_GetFlagStatus) for USART_GetFlagStatus
    uctsk_ssnp_tbc.o(i.send_cmd) refers to tbc.o(i.TBC_send_noArgucmd) for TBC_send_noArgucmd
    uctsk_ssnp_tbc.o(i.send_cmd) refers to printfa.o(i.__0printf) for __2printf
    uctsk_ssnp_tbc.o(i.test) refers to printfa.o(i.__0printf) for __2printf
    uctsk_ssnp_tbc.o(i.test_analysis) refers to printfa.o(i.__0printf) for __2printf
    uctsk_ssnp_tbc.o(i.uctsk_SSNP_TBC_new) refers to ssnp_for_app.o(i.hardware_init) for hardware_init
    uctsk_ssnp_tbc.o(i.uctsk_SSNP_TBC_new) refers to ssnp_for_app.o(i.protocol_init) for protocol_init
    uctsk_ssnp_tbc.o(i.uctsk_SSNP_TBC_new) refers to printfa.o(i.__0printf) for __2printf
    uctsk_ssnp_tbc.o(i.uctsk_SSNP_TBC_new) refers to uctsk_ssnp_tbc.o(i.app_init) for app_init
    uctsk_ssnp_tbc.o(i.uctsk_SSNP_TBC_new) refers to ssnp_for_app.o(i.send_discovery_msg) for send_discovery_msg
    uctsk_ssnp_tbc.o(i.uctsk_SSNP_TBC_new) refers to uctsk_ssnp_tbc.o(i.Delay) for Delay
    uctsk_ssnp_tbc.o(i.uctsk_SSNP_TBC_new) refers to api_lib.o(i.get_tbim) for get_tbim
    uctsk_ssnp_tbc.o(i.uctsk_SSNP_TBC_new) refers to tbc.o(i.TBIM_recongnition) for TBIM_recongnition
    uctsk_ssnp_tbc.o(i.uctsk_SSNP_TBC_new) refers to stm32f10x_tim.o(i.TIM_GetCounter) for TIM_GetCounter
    uctsk_ssnp_tbc.o(i.uctsk_SSNP_TBC_new) refers to ssnp_for_app.o(i.tbc_send_reflect_msg) for tbc_send_reflect_msg
    uctsk_ssnp_tbc.o(i.uctsk_SSNP_TBC_new) refers to ethbcp.o(i.is_reflect_reply_ok) for is_reflect_reply_ok
    uctsk_ssnp_tbc.o(i.uctsk_SSNP_TBC_new) refers to ethbcp.o(i.set_reflect_reply_unfinished) for set_reflect_reply_unfinished
    uctsk_ssnp_tbc.o(i.uctsk_SSNP_TBC_new) refers to tbc.o(i.set_syn_asyn_num) for set_syn_asyn_num
    uctsk_ssnp_tbc.o(i.uctsk_SSNP_TBC_new) refers to tbc.o(i.get_epoch) for get_epoch
    uctsk_ssnp_tbc.o(i.uctsk_SSNP_TBC_new) refers to ssnp_for_app.o(i.tbc_send_define_epoch_msg) for tbc_send_define_epoch_msg
    uctsk_ssnp_tbc.o(i.uctsk_SSNP_TBC_new) refers to tbc.o(i.timeslot_alloc) for timeslot_alloc
    uctsk_ssnp_tbc.o(i.uctsk_SSNP_TBC_new) refers to uctsk_ssnp_tbc.o(i.NVIC_Configuration_TIM5) for NVIC_Configuration_TIM5
    uctsk_ssnp_tbc.o(i.uctsk_SSNP_TBC_new) refers to ssnp_for_app.o(i.tbc_send_begin_of_epoch_msg) for tbc_send_begin_of_epoch_msg
    uctsk_ssnp_tbc.o(i.uctsk_SSNP_TBC_new) refers to sys_arch.o(i.sys_arch_mbox_fetch_unblock) for sys_arch_mbox_fetch_unblock
    uctsk_ssnp_tbc.o(i.uctsk_SSNP_TBC_new) refers to upcomputer.o(i.send_sdp_upcomputer) for send_sdp_upcomputer
    uctsk_ssnp_tbc.o(i.uctsk_SSNP_TBC_new) refers to netbuf.o(i.netbuf_delete) for netbuf_delete
    uctsk_ssnp_tbc.o(i.uctsk_SSNP_TBC_new) refers to upcomputer.o(i.isQempty) for isQempty
    uctsk_ssnp_tbc.o(i.uctsk_SSNP_TBC_new) refers to upcomputer.o(i.deQueue) for deQueue
    uctsk_ssnp_tbc.o(i.uctsk_SSNP_TBC_new) refers to tbc.o(i.TBC_send_upcomputer_cmd) for TBC_send_upcomputer_cmd
    uctsk_ssnp_tbc.o(i.uctsk_SSNP_TBC_new) refers to tbc.o(.bss) for tbc
    uctsk_ssnp_tbc.o(i.uctsk_SSNP_TBC_new) refers to uctsk_ssnp_tbc.o(.data) for streaming_data_recv_mbox
    upcomputer.o(i.deQueue) refers to upcomputer.o(i.isQempty) for isQempty
    upcomputer.o(i.deQueue) refers to upcomputer.o(.bss) for queue
    upcomputer.o(i.enQueue) refers to upcomputer.o(i.isQfull) for isQfull
    upcomputer.o(i.enQueue) refers to printfa.o(i.__0printf) for __2printf
    upcomputer.o(i.enQueue) refers to upcomputer.o(.bss) for queue
    upcomputer.o(i.has_upcomputer_cmd) refers to upcomputer.o(.bss) for queue
    upcomputer.o(i.init_queue) refers to upcomputer.o(.bss) for queue
    upcomputer.o(i.isQempty) refers to upcomputer.o(.bss) for queue
    upcomputer.o(i.isQfull) refers to upcomputer.o(.bss) for queue
    upcomputer.o(i.send_TEDS_upcomputer) refers to upcomputer.o(i.send_upcomputer) for send_upcomputer
    upcomputer.o(i.send_sdp_upcomputer) refers to upcomputer.o(i.send_upcomputer) for send_upcomputer
    upcomputer.o(i.send_upcomputer) refers to stm32f10x_usart.o(i.USART_SendData) for USART_SendData
    upcomputer.o(i.send_upcomputer) refers to stm32f10x_usart.o(i.USART_GetFlagStatus) for USART_GetFlagStatus
    i2c_fram.o(i.I2C_Ack) refers to i2c_fram.o(i.I2C_delay) for I2C_delay
    i2c_fram.o(i.I2C_BufferWrite) refers to i2c_fram.o(i.I2C_Fram_PageWrite) for I2C_Fram_PageWrite
    i2c_fram.o(i.I2C_BufferWrite) refers to i2c_fram.o(i.I2C_delay) for I2C_delay
    i2c_fram.o(i.I2C_FRAM_BufferRead) refers to i2c_fram.o(i.I2C_Start) for I2C_Start
    i2c_fram.o(i.I2C_FRAM_BufferRead) refers to i2c_fram.o(i.I2C_SendByte) for I2C_SendByte
    i2c_fram.o(i.I2C_FRAM_BufferRead) refers to i2c_fram.o(i.I2C_WaitAck) for I2C_WaitAck
    i2c_fram.o(i.I2C_FRAM_BufferRead) refers to i2c_fram.o(i.I2C_Stop) for I2C_Stop
    i2c_fram.o(i.I2C_FRAM_BufferRead) refers to i2c_fram.o(i.I2C_ReceiveByte) for I2C_ReceiveByte
    i2c_fram.o(i.I2C_FRAM_BufferRead) refers to i2c_fram.o(i.I2C_NoAck) for I2C_NoAck
    i2c_fram.o(i.I2C_FRAM_BufferRead) refers to i2c_fram.o(i.I2C_Ack) for I2C_Ack
    i2c_fram.o(i.I2C_FRAM_BufferRead) refers to i2c_fram.o(.data) for FRAM_ADDRESS
    i2c_fram.o(i.I2C_FRAM_BufferWrite) refers to i2c_fram.o(i.I2C_Start) for I2C_Start
    i2c_fram.o(i.I2C_FRAM_BufferWrite) refers to i2c_fram.o(i.I2C_SendByte) for I2C_SendByte
    i2c_fram.o(i.I2C_FRAM_BufferWrite) refers to i2c_fram.o(i.I2C_WaitAck) for I2C_WaitAck
    i2c_fram.o(i.I2C_FRAM_BufferWrite) refers to i2c_fram.o(i.I2C_Stop) for I2C_Stop
    i2c_fram.o(i.I2C_FRAM_BufferWrite) refers to i2c_fram.o(i.I2C_delay) for I2C_delay
    i2c_fram.o(i.I2C_FRAM_BufferWrite) refers to i2c_fram.o(.data) for FRAM_ADDRESS
    i2c_fram.o(i.I2C_Fram_PageWrite) refers to i2c_fram.o(i.I2C_Start) for I2C_Start
    i2c_fram.o(i.I2C_Fram_PageWrite) refers to i2c_fram.o(i.I2C_SendByte) for I2C_SendByte
    i2c_fram.o(i.I2C_Fram_PageWrite) refers to i2c_fram.o(i.I2C_WaitAck) for I2C_WaitAck
    i2c_fram.o(i.I2C_Fram_PageWrite) refers to i2c_fram.o(i.I2C_Stop) for I2C_Stop
    i2c_fram.o(i.I2C_Fram_PageWrite) refers to i2c_fram.o(i.I2C_delay) for I2C_delay
    i2c_fram.o(i.I2C_NoAck) refers to i2c_fram.o(i.I2C_delay) for I2C_delay
    i2c_fram.o(i.I2C_ReceiveByte) refers to i2c_fram.o(i.I2C_delay) for I2C_delay
    i2c_fram.o(i.I2C_SendByte) refers to i2c_fram.o(i.I2C_delay) for I2C_delay
    i2c_fram.o(i.I2C_Start) refers to i2c_fram.o(i.I2C_delay) for I2C_delay
    i2c_fram.o(i.I2C_Stop) refers to i2c_fram.o(i.I2C_delay) for I2C_delay
    i2c_fram.o(i.I2C_WaitAck) refers to i2c_fram.o(i.I2C_delay) for I2C_delay
    hzlib.o(i.GetGBKCode) refers to memcpya.o(.text) for __aeabi_memcpy
    hzlib.o(i.GetGBKCode) refers to hzlib.o(.constdata) for HzLib
    asciilib.o(i.GetASCIICode) refers to memcpya.o(.text) for __aeabi_memcpy
    asciilib.o(i.GetASCIICode) refers to asciilib.o(.constdata) for AsciiLib
    glcd.o(i.GUI_Chinese) refers to glcd.o(i.PutChinese) for PutChinese
    glcd.o(i.GUI_Text) refers to glcd.o(i.PutChar) for PutChar
    glcd.o(i.LCD_Clear) refers to glcd.o(i.LCD_WriteReg) for LCD_WriteReg
    glcd.o(i.LCD_Clear) refers to glcd.o(i.LCD_SetCursor) for LCD_SetCursor
    glcd.o(i.LCD_Clear) refers to glcd.o(i.LCD_WriteIndex) for LCD_WriteIndex
    glcd.o(i.LCD_Clear) refers to glcd.o(i.LCD_WriteData) for LCD_WriteData
    glcd.o(i.LCD_Clear) refers to glcd.o(.data) for LCD_Code
    glcd.o(i.LCD_Configuration) refers to stm32f10x_rcc.o(i.RCC_APB2PeriphClockCmd) for RCC_APB2PeriphClockCmd
    glcd.o(i.LCD_Configuration) refers to stm32f10x_gpio.o(i.GPIO_Init) for GPIO_Init
    glcd.o(i.LCD_DrawLine) refers to glcd.o(i.LCD_SetPoint) for LCD_SetPoint
    glcd.o(i.LCD_GetPoint) refers to glcd.o(i.LCD_SetCursor) for LCD_SetCursor
    glcd.o(i.LCD_GetPoint) refers to glcd.o(i.LCD_WriteIndex) for LCD_WriteIndex
    glcd.o(i.LCD_GetPoint) refers to glcd.o(i.LCD_ReadData) for LCD_ReadData
    glcd.o(i.LCD_GetPoint) refers to glcd.o(i.LCD_BGR2RGB) for LCD_BGR2RGB
    glcd.o(i.LCD_GetPoint) refers to glcd.o(.data) for LCD_Code
    glcd.o(i.LCD_Initializtion) refers to glcd.o(i.LCD_Configuration) for LCD_Configuration
    glcd.o(i.LCD_Initializtion) refers to glcd.o(i.LCD_ReadReg) for LCD_ReadReg
    glcd.o(i.LCD_Initializtion) refers to glcd.o(i.LCD_WriteReg) for LCD_WriteReg
    glcd.o(i.LCD_Initializtion) refers to glcd.o(i.delay_ms) for delay_ms
    glcd.o(i.LCD_Initializtion) refers to glcd.o(.data) for LCD_Code
    glcd.o(i.LCD_SetCursor) refers to glcd.o(i.LCD_WriteReg) for LCD_WriteReg
    glcd.o(i.LCD_SetCursor) refers to glcd.o(.data) for LCD_Code
    glcd.o(i.LCD_SetPoint) refers to glcd.o(i.LCD_SetCursor) for LCD_SetCursor
    glcd.o(i.LCD_SetPoint) refers to glcd.o(i.LCD_WriteReg) for LCD_WriteReg
    glcd.o(i.PutChar) refers to asciilib.o(i.GetASCIICode) for GetASCIICode
    glcd.o(i.PutChar) refers to glcd.o(i.LCD_SetPoint) for LCD_SetPoint
    glcd.o(i.PutChinese) refers to hzlib.o(i.GetGBKCode) for GetGBKCode
    glcd.o(i.PutChinese) refers to glcd.o(i.LCD_SetPoint) for LCD_SetPoint
    stm32f10x_flash.o(i.FLASH_EnableWriteProtection) refers to stm32f10x_flash.o(i.FLASH_WaitForLastOperation) for FLASH_WaitForLastOperation
    stm32f10x_flash.o(i.FLASH_EraseAllBank1Pages) refers to stm32f10x_flash.o(i.FLASH_WaitForLastBank1Operation) for FLASH_WaitForLastBank1Operation
    stm32f10x_flash.o(i.FLASH_EraseAllPages) refers to stm32f10x_flash.o(i.FLASH_WaitForLastOperation) for FLASH_WaitForLastOperation
    stm32f10x_flash.o(i.FLASH_EraseOptionBytes) refers to stm32f10x_flash.o(i.FLASH_GetReadOutProtectionStatus) for FLASH_GetReadOutProtectionStatus
    stm32f10x_flash.o(i.FLASH_EraseOptionBytes) refers to stm32f10x_flash.o(i.FLASH_WaitForLastOperation) for FLASH_WaitForLastOperation
    stm32f10x_flash.o(i.FLASH_ErasePage) refers to stm32f10x_flash.o(i.FLASH_WaitForLastOperation) for FLASH_WaitForLastOperation
    stm32f10x_flash.o(i.FLASH_ProgramHalfWord) refers to stm32f10x_flash.o(i.FLASH_WaitForLastOperation) for FLASH_WaitForLastOperation
    stm32f10x_flash.o(i.FLASH_ProgramOptionByteData) refers to stm32f10x_flash.o(i.FLASH_WaitForLastOperation) for FLASH_WaitForLastOperation
    stm32f10x_flash.o(i.FLASH_ProgramWord) refers to stm32f10x_flash.o(i.FLASH_WaitForLastOperation) for FLASH_WaitForLastOperation
    stm32f10x_flash.o(i.FLASH_ReadOutProtection) refers to stm32f10x_flash.o(i.FLASH_WaitForLastOperation) for FLASH_WaitForLastOperation
    stm32f10x_flash.o(i.FLASH_UserOptionByteConfig) refers to stm32f10x_flash.o(i.FLASH_WaitForLastOperation) for FLASH_WaitForLastOperation
    stm32f10x_flash.o(i.FLASH_WaitForLastBank1Operation) refers to stm32f10x_flash.o(i.FLASH_GetBank1Status) for FLASH_GetBank1Status
    stm32f10x_flash.o(i.FLASH_WaitForLastOperation) refers to stm32f10x_flash.o(i.FLASH_GetBank1Status) for FLASH_GetBank1Status
    stm32f10x_gpio.o(i.GPIO_AFIODeInit) refers to stm32f10x_rcc.o(i.RCC_APB2PeriphResetCmd) for RCC_APB2PeriphResetCmd
    stm32f10x_gpio.o(i.GPIO_DeInit) refers to stm32f10x_rcc.o(i.RCC_APB2PeriphResetCmd) for RCC_APB2PeriphResetCmd
    stm32f10x_rcc.o(i.RCC_GetClocksFreq) refers to stm32f10x_rcc.o(.data) for APBAHBPrescTable
    stm32f10x_rcc.o(i.RCC_WaitForHSEStartUp) refers to stm32f10x_rcc.o(i.RCC_GetFlagStatus) for RCC_GetFlagStatus
    stm32f10x_adc.o(i.ADC_DeInit) refers to stm32f10x_rcc.o(i.RCC_APB2PeriphResetCmd) for RCC_APB2PeriphResetCmd
    stm32f10x_bkp.o(i.BKP_DeInit) refers to stm32f10x_rcc.o(i.RCC_BackupResetCmd) for RCC_BackupResetCmd
    stm32f10x_can.o(i.CAN_DeInit) refers to stm32f10x_rcc.o(i.RCC_APB1PeriphResetCmd) for RCC_APB1PeriphResetCmd
    stm32f10x_can.o(i.CAN_GetITStatus) refers to stm32f10x_can.o(i.CheckITStatus) for CheckITStatus
    stm32f10x_can.o(i.CAN_Receive) refers to stm32f10x_can.o(i.CAN_FIFORelease) for CAN_FIFORelease
    stm32f10x_cec.o(i.CEC_DeInit) refers to stm32f10x_rcc.o(i.RCC_APB1PeriphResetCmd) for RCC_APB1PeriphResetCmd
    stm32f10x_dac.o(i.DAC_DeInit) refers to stm32f10x_rcc.o(i.RCC_APB1PeriphResetCmd) for RCC_APB1PeriphResetCmd
    stm32f10x_i2c.o(i.I2C_DeInit) refers to stm32f10x_rcc.o(i.RCC_APB1PeriphResetCmd) for RCC_APB1PeriphResetCmd
    stm32f10x_i2c.o(i.I2C_Init) refers to stm32f10x_rcc.o(i.RCC_GetClocksFreq) for RCC_GetClocksFreq
    stm32f10x_pwr.o(i.PWR_DeInit) refers to stm32f10x_rcc.o(i.RCC_APB1PeriphResetCmd) for RCC_APB1PeriphResetCmd
    stm32f10x_rtc.o(i.RTC_SetAlarm) refers to stm32f10x_rtc.o(i.RTC_EnterConfigMode) for RTC_EnterConfigMode
    stm32f10x_rtc.o(i.RTC_SetAlarm) refers to stm32f10x_rtc.o(i.RTC_ExitConfigMode) for RTC_ExitConfigMode
    stm32f10x_rtc.o(i.RTC_SetCounter) refers to stm32f10x_rtc.o(i.RTC_EnterConfigMode) for RTC_EnterConfigMode
    stm32f10x_rtc.o(i.RTC_SetCounter) refers to stm32f10x_rtc.o(i.RTC_ExitConfigMode) for RTC_ExitConfigMode
    stm32f10x_rtc.o(i.RTC_SetPrescaler) refers to stm32f10x_rtc.o(i.RTC_EnterConfigMode) for RTC_EnterConfigMode
    stm32f10x_rtc.o(i.RTC_SetPrescaler) refers to stm32f10x_rtc.o(i.RTC_ExitConfigMode) for RTC_ExitConfigMode
    stm32f10x_spi.o(i.I2S_Init) refers to stm32f10x_rcc.o(i.RCC_GetClocksFreq) for RCC_GetClocksFreq
    stm32f10x_spi.o(i.SPI_I2S_DeInit) refers to stm32f10x_rcc.o(i.RCC_APB2PeriphResetCmd) for RCC_APB2PeriphResetCmd
    stm32f10x_spi.o(i.SPI_I2S_DeInit) refers to stm32f10x_rcc.o(i.RCC_APB1PeriphResetCmd) for RCC_APB1PeriphResetCmd
    stm32f10x_tim.o(i.TIM_DeInit) refers to stm32f10x_rcc.o(i.RCC_APB2PeriphResetCmd) for RCC_APB2PeriphResetCmd
    stm32f10x_tim.o(i.TIM_DeInit) refers to stm32f10x_rcc.o(i.RCC_APB1PeriphResetCmd) for RCC_APB1PeriphResetCmd
    stm32f10x_tim.o(i.TIM_ETRClockMode1Config) refers to stm32f10x_tim.o(i.TIM_ETRConfig) for TIM_ETRConfig
    stm32f10x_tim.o(i.TIM_ETRClockMode2Config) refers to stm32f10x_tim.o(i.TIM_ETRConfig) for TIM_ETRConfig
    stm32f10x_tim.o(i.TIM_ICInit) refers to stm32f10x_tim.o(i.TI1_Config) for TI1_Config
    stm32f10x_tim.o(i.TIM_ICInit) refers to stm32f10x_tim.o(i.TIM_SetIC1Prescaler) for TIM_SetIC1Prescaler
    stm32f10x_tim.o(i.TIM_ICInit) refers to stm32f10x_tim.o(i.TI2_Config) for TI2_Config
    stm32f10x_tim.o(i.TIM_ICInit) refers to stm32f10x_tim.o(i.TIM_SetIC2Prescaler) for TIM_SetIC2Prescaler
    stm32f10x_tim.o(i.TIM_ICInit) refers to stm32f10x_tim.o(i.TI3_Config) for TI3_Config
    stm32f10x_tim.o(i.TIM_ICInit) refers to stm32f10x_tim.o(i.TIM_SetIC3Prescaler) for TIM_SetIC3Prescaler
    stm32f10x_tim.o(i.TIM_ICInit) refers to stm32f10x_tim.o(i.TI4_Config) for TI4_Config
    stm32f10x_tim.o(i.TIM_ICInit) refers to stm32f10x_tim.o(i.TIM_SetIC4Prescaler) for TIM_SetIC4Prescaler
    stm32f10x_tim.o(i.TIM_ITRxExternalClockConfig) refers to stm32f10x_tim.o(i.TIM_SelectInputTrigger) for TIM_SelectInputTrigger
    stm32f10x_tim.o(i.TIM_PWMIConfig) refers to stm32f10x_tim.o(i.TI1_Config) for TI1_Config
    stm32f10x_tim.o(i.TIM_PWMIConfig) refers to stm32f10x_tim.o(i.TIM_SetIC1Prescaler) for TIM_SetIC1Prescaler
    stm32f10x_tim.o(i.TIM_PWMIConfig) refers to stm32f10x_tim.o(i.TI2_Config) for TI2_Config
    stm32f10x_tim.o(i.TIM_PWMIConfig) refers to stm32f10x_tim.o(i.TIM_SetIC2Prescaler) for TIM_SetIC2Prescaler
    stm32f10x_tim.o(i.TIM_TIxExternalClockConfig) refers to stm32f10x_tim.o(i.TI2_Config) for TI2_Config
    stm32f10x_tim.o(i.TIM_TIxExternalClockConfig) refers to stm32f10x_tim.o(i.TI1_Config) for TI1_Config
    stm32f10x_tim.o(i.TIM_TIxExternalClockConfig) refers to stm32f10x_tim.o(i.TIM_SelectInputTrigger) for TIM_SelectInputTrigger
    stm32f10x_usart.o(i.USART_DeInit) refers to stm32f10x_rcc.o(i.RCC_APB2PeriphResetCmd) for RCC_APB2PeriphResetCmd
    stm32f10x_usart.o(i.USART_DeInit) refers to stm32f10x_rcc.o(i.RCC_APB1PeriphResetCmd) for RCC_APB1PeriphResetCmd
    stm32f10x_usart.o(i.USART_Init) refers to stm32f10x_rcc.o(i.RCC_GetClocksFreq) for RCC_GetClocksFreq
    stm32f10x_wwdg.o(i.WWDG_DeInit) refers to stm32f10x_rcc.o(i.RCC_APB1PeriphResetCmd) for RCC_APB1PeriphResetCmd
    stm32_eth.o(i.ETH_DMAPTPRxDescChainInit) refers to stm32_eth.o(.data) for DMARxDescToGet
    stm32_eth.o(i.ETH_DMAPTPTxDescChainInit) refers to stm32_eth.o(.data) for DMATxDescToSet
    stm32_eth.o(i.ETH_DMARxDescChainInit) refers to stm32_eth.o(.data) for DMARxDescToGet
    stm32_eth.o(i.ETH_DMARxDescRingInit) refers to stm32_eth.o(.data) for DMARxDescToGet
    stm32_eth.o(i.ETH_DMATxDescChainInit) refers to stm32_eth.o(.data) for DMATxDescToSet
    stm32_eth.o(i.ETH_DMATxDescRingInit) refers to stm32_eth.o(.data) for DMATxDescToSet
    stm32_eth.o(i.ETH_DeInit) refers to stm32f10x_rcc.o(i.RCC_AHBPeriphResetCmd) for RCC_AHBPeriphResetCmd
    stm32_eth.o(i.ETH_DropRxPkt) refers to stm32_eth.o(.data) for DMARxDescToGet
    stm32_eth.o(i.ETH_GetRxPktSize) refers to stm32_eth.o(i.ETH_GetDMARxDescFrameLength) for ETH_GetDMARxDescFrameLength
    stm32_eth.o(i.ETH_GetRxPktSize) refers to stm32_eth.o(.data) for DMARxDescToGet
    stm32_eth.o(i.ETH_HandlePTPRxPkt) refers to stm32_eth.o(.data) for DMARxDescToGet
    stm32_eth.o(i.ETH_HandlePTPTxPkt) refers to stm32_eth.o(.data) for DMATxDescToSet
    stm32_eth.o(i.ETH_HandleRxPkt) refers to stm32_eth.o(.data) for DMARxDescToGet
    stm32_eth.o(i.ETH_HandleTxPkt) refers to stm32_eth.o(.data) for DMATxDescToSet
    stm32_eth.o(i.ETH_Init) refers to stm32f10x_rcc.o(i.RCC_GetClocksFreq) for RCC_GetClocksFreq
    stm32_eth.o(i.ETH_Init) refers to stm32_eth.o(i.ETH_WritePHYRegister) for ETH_WritePHYRegister
    stm32_eth.o(i.ETH_Init) refers to stm32_eth.o(i.ETH_Delay) for ETH_Delay
    stm32_eth.o(i.ETH_Init) refers to stm32_eth.o(i.ETH_ReadPHYRegister) for ETH_ReadPHYRegister
    stm32_eth.o(i.ETH_PHYLoopBackCmd) refers to stm32_eth.o(i.ETH_ReadPHYRegister) for ETH_ReadPHYRegister
    stm32_eth.o(i.ETH_PHYLoopBackCmd) refers to stm32_eth.o(i.ETH_WritePHYRegister) for ETH_WritePHYRegister
    stm32_eth.o(i.ETH_Start) refers to stm32_eth.o(i.ETH_MACTransmissionCmd) for ETH_MACTransmissionCmd
    stm32_eth.o(i.ETH_Start) refers to stm32_eth.o(i.ETH_FlushTransmitFIFO) for ETH_FlushTransmitFIFO
    stm32_eth.o(i.ETH_Start) refers to stm32_eth.o(i.ETH_MACReceptionCmd) for ETH_MACReceptionCmd
    stm32_eth.o(i.ETH_Start) refers to stm32_eth.o(i.ETH_DMATransmissionCmd) for ETH_DMATransmissionCmd
    stm32_eth.o(i.ETH_Start) refers to stm32_eth.o(i.ETH_DMAReceptionCmd) for ETH_DMAReceptionCmd
    system_stm32f10x.o(i.SetSysClock) refers to system_stm32f10x.o(i.SetSysClockTo72) for SetSysClockTo72
    system_stm32f10x.o(i.SystemCoreClockUpdate) refers to system_stm32f10x.o(.data) for SystemCoreClock
    system_stm32f10x.o(i.SystemInit) refers to system_stm32f10x.o(i.SetSysClock) for SetSysClock
    startup_stm32f10x_cl.o(RESET) refers to startup_stm32f10x_cl.o(STACK) for __initial_sp
    startup_stm32f10x_cl.o(RESET) refers to startup_stm32f10x_cl.o(.text) for Reset_Handler
    startup_stm32f10x_cl.o(RESET) refers to stm32f10x_it.o(i.NMI_Handler) for NMI_Handler
    startup_stm32f10x_cl.o(RESET) refers to stm32f10x_it.o(i.HardFault_Handler) for HardFault_Handler
    startup_stm32f10x_cl.o(RESET) refers to stm32f10x_it.o(i.MemManage_Handler) for MemManage_Handler
    startup_stm32f10x_cl.o(RESET) refers to stm32f10x_it.o(i.BusFault_Handler) for BusFault_Handler
    startup_stm32f10x_cl.o(RESET) refers to stm32f10x_it.o(i.UsageFault_Handler) for UsageFault_Handler
    startup_stm32f10x_cl.o(RESET) refers to stm32f10x_it.o(i.SVC_Handler) for SVC_Handler
    startup_stm32f10x_cl.o(RESET) refers to stm32f10x_it.o(i.DebugMon_Handler) for DebugMon_Handler
    startup_stm32f10x_cl.o(RESET) refers to os_cpu_a.o(.text) for PendSV_Handler
    startup_stm32f10x_cl.o(RESET) refers to stm32f10x_it.o(i.SysTick_Handler) for SysTick_Handler
    startup_stm32f10x_cl.o(RESET) refers to stm32f10x_it.o(i.USART1_IRQHandler) for USART1_IRQHandler
    startup_stm32f10x_cl.o(RESET) refers to ssnp_for_app.o(i.USART2_IRQHandler) for USART2_IRQHandler
    startup_stm32f10x_cl.o(RESET) refers to uctsk_ssnp_tbc.o(i.TIM5_IRQHandler) for TIM5_IRQHandler
    startup_stm32f10x_cl.o(RESET) refers to ssnp_for_app.o(i.ETH_IRQHandler) for ETH_IRQHandler
    startup_stm32f10x_cl.o(.text) refers to system_stm32f10x.o(i.SystemInit) for SystemInit
    startup_stm32f10x_cl.o(.text) refers to entry.o(.ARM.Collect$$$$00000000) for __main
    os_dbg.o(i.OSDebugInit) refers to os_dbg.o(.constdata) for OSDebugEn
    os_dbg.o(i.OSDebugInit) refers to os_core.o(.bss) for OSTmrTbl
    os_cpu_c.o(i.OSInitHookBegin) refers to os_cpu_c.o(.data) for OSTmrCtr
    os_cpu_c.o(i.OSTCBInitHook) refers to os_apphooks.o(i.App_TCBInitHook) for App_TCBInitHook
    os_cpu_c.o(i.OSTaskCreateHook) refers to os_apphooks.o(i.App_TaskCreateHook) for App_TaskCreateHook
    os_cpu_c.o(i.OSTaskDelHook) refers to os_apphooks.o(i.App_TaskDelHook) for App_TaskDelHook
    os_cpu_c.o(i.OSTaskIdleHook) refers to os_apphooks.o(i.App_TaskIdleHook) for App_TaskIdleHook
    os_cpu_c.o(i.OSTaskStatHook) refers to os_apphooks.o(i.App_TaskStatHook) for App_TaskStatHook
    os_cpu_c.o(i.OSTaskSwHook) refers to os_apphooks.o(i.App_TaskSwHook) for App_TaskSwHook
    os_cpu_c.o(i.OSTimeTickHook) refers to os_apphooks.o(i.App_TimeTickHook) for App_TimeTickHook
    os_cpu_c.o(i.OSTimeTickHook) refers to os_tmr.o(i.OSTmrSignal) for OSTmrSignal
    os_cpu_c.o(i.OSTimeTickHook) refers to os_cpu_c.o(.data) for OSTmrCtr
    os_cpu_c.o(i.OS_CPU_SysTickClkFreq) refers to stm32f10x_rcc.o(i.RCC_GetClocksFreq) for RCC_GetClocksFreq
    os_cpu_c.o(i.OS_CPU_SysTickHandler) refers to os_cpu_a.o(.text) for OS_CPU_SR_Save
    os_cpu_c.o(i.OS_CPU_SysTickHandler) refers to os_core.o(i.OSTimeTick) for OSTimeTick
    os_cpu_c.o(i.OS_CPU_SysTickHandler) refers to os_core.o(i.OSIntExit) for OSIntExit
    os_cpu_c.o(i.OS_CPU_SysTickHandler) refers to os_core.o(.data) for OSIntNesting
    os_cpu_c.o(i.OS_CPU_SysTickInit) refers to system_stm32f10x.o(.data) for SystemCoreClock
    os_cpu_a.o(.text) refers to os_core.o(.data) for OSRunning
    os_cpu_a.o(.text) refers to os_cpu_c.o(i.OSTaskSwHook) for OSTaskSwHook
    os_core.o(i.OSEventNameGet) refers to os_cpu_a.o(.text) for OS_CPU_SR_Save
    os_core.o(i.OSEventNameGet) refers to os_core.o(i.OS_StrLen) for OS_StrLen
    os_core.o(i.OSEventNameGet) refers to os_core.o(.data) for OSIntNesting
    os_core.o(i.OSEventNameSet) refers to os_cpu_a.o(.text) for OS_CPU_SR_Save
    os_core.o(i.OSEventNameSet) refers to os_core.o(.data) for OSIntNesting
    os_core.o(i.OSEventPendMulti) refers to os_cpu_a.o(.text) for OS_CPU_SR_Save
    os_core.o(i.OSEventPendMulti) refers to os_core.o(i.OS_EventTaskWaitMulti) for OS_EventTaskWaitMulti
    os_core.o(i.OSEventPendMulti) refers to os_core.o(i.OS_Sched) for OS_Sched
    os_core.o(i.OSEventPendMulti) refers to os_core.o(i.OS_EventTaskRemoveMulti) for OS_EventTaskRemoveMulti
    os_core.o(i.OSEventPendMulti) refers to os_core.o(.data) for OSIntNesting
    os_core.o(i.OSInit) refers to os_cpu_c.o(i.OSInitHookBegin) for OSInitHookBegin
    os_core.o(i.OSInit) refers to os_core.o(i.OS_InitMisc) for OS_InitMisc
    os_core.o(i.OSInit) refers to os_core.o(i.OS_InitRdyList) for OS_InitRdyList
    os_core.o(i.OSInit) refers to os_core.o(i.OS_InitTCBList) for OS_InitTCBList
    os_core.o(i.OSInit) refers to os_core.o(i.OS_InitEventList) for OS_InitEventList
    os_core.o(i.OSInit) refers to os_flag.o(i.OS_FlagInit) for OS_FlagInit
    os_core.o(i.OSInit) refers to os_mem.o(i.OS_MemInit) for OS_MemInit
    os_core.o(i.OSInit) refers to os_q.o(i.OS_QInit) for OS_QInit
    os_core.o(i.OSInit) refers to os_core.o(i.OS_InitTaskIdle) for OS_InitTaskIdle
    os_core.o(i.OSInit) refers to os_core.o(i.OS_InitTaskStat) for OS_InitTaskStat
    os_core.o(i.OSInit) refers to os_tmr.o(i.OSTmr_Init) for OSTmr_Init
    os_core.o(i.OSInit) refers to os_cpu_c.o(i.OSInitHookEnd) for OSInitHookEnd
    os_core.o(i.OSInit) refers to os_dbg.o(i.OSDebugInit) for OSDebugInit
    os_core.o(i.OSIntEnter) refers to os_core.o(.data) for OSRunning
    os_core.o(i.OSIntExit) refers to os_cpu_a.o(.text) for OS_CPU_SR_Save
    os_core.o(i.OSIntExit) refers to os_core.o(i.OS_SchedNew) for OS_SchedNew
    os_core.o(i.OSIntExit) refers to os_core.o(.data) for OSRunning
    os_core.o(i.OSIntExit) refers to os_core.o(.bss) for OSTCBPrioTbl
    os_core.o(i.OSSchedLock) refers to os_cpu_a.o(.text) for OS_CPU_SR_Save
    os_core.o(i.OSSchedLock) refers to os_core.o(.data) for OSRunning
    os_core.o(i.OSSchedUnlock) refers to os_cpu_a.o(.text) for OS_CPU_SR_Save
    os_core.o(i.OSSchedUnlock) refers to os_core.o(i.OS_Sched) for OS_Sched
    os_core.o(i.OSSchedUnlock) refers to os_core.o(.data) for OSRunning
    os_core.o(i.OSStart) refers to os_core.o(i.OS_SchedNew) for OS_SchedNew
    os_core.o(i.OSStart) refers to os_cpu_a.o(.text) for OSStartHighRdy
    os_core.o(i.OSStart) refers to os_core.o(.data) for OSRunning
    os_core.o(i.OSStart) refers to os_core.o(.bss) for OSTCBPrioTbl
    os_core.o(i.OSStatInit) refers to os_time.o(i.OSTimeDly) for OSTimeDly
    os_core.o(i.OSStatInit) refers to os_cpu_a.o(.text) for OS_CPU_SR_Save
    os_core.o(i.OSStatInit) refers to os_core.o(.data) for OSIdleCtr
    os_core.o(i.OSTimeTick) refers to os_cpu_c.o(i.OSTimeTickHook) for OSTimeTickHook
    os_core.o(i.OSTimeTick) refers to os_cpu_a.o(.text) for OS_CPU_SR_Save
    os_core.o(i.OSTimeTick) refers to os_core.o(.data) for OSTime
    os_core.o(i.OS_EventTaskRdy) refers to os_core.o(i.OS_EventTaskRemove) for OS_EventTaskRemove
    os_core.o(i.OS_EventTaskRdy) refers to os_core.o(i.OS_EventTaskRemoveMulti) for OS_EventTaskRemoveMulti
    os_core.o(i.OS_EventTaskRdy) refers to os_core.o(.constdata) for OSUnMapTbl
    os_core.o(i.OS_EventTaskRdy) refers to os_core.o(.bss) for OSTCBPrioTbl
    os_core.o(i.OS_EventTaskRdy) refers to os_core.o(.data) for OSRdyGrp
    os_core.o(i.OS_EventTaskWait) refers to os_core.o(.data) for OSTCBCur
    os_core.o(i.OS_EventTaskWaitMulti) refers to os_core.o(.data) for OSTCBCur
    os_core.o(i.OS_InitEventList) refers to os_core.o(i.OS_MemClr) for OS_MemClr
    os_core.o(i.OS_InitEventList) refers to os_core.o(.bss) for OSEventTbl
    os_core.o(i.OS_InitEventList) refers to os_core.o(.data) for OSEventFreeList
    os_core.o(i.OS_InitMisc) refers to os_core.o(.data) for OSTime
    os_core.o(i.OS_InitRdyList) refers to os_core.o(.data) for OSRdyGrp
    os_core.o(i.OS_InitTCBList) refers to os_core.o(i.OS_MemClr) for OS_MemClr
    os_core.o(i.OS_InitTCBList) refers to os_core.o(.bss) for OSTCBTbl
    os_core.o(i.OS_InitTCBList) refers to os_core.o(.data) for OSTCBList
    os_core.o(i.OS_InitTaskIdle) refers to os_task.o(i.OSTaskCreateExt) for OSTaskCreateExt
    os_core.o(i.OS_InitTaskIdle) refers to os_task.o(i.OSTaskNameSet) for OSTaskNameSet
    os_core.o(i.OS_InitTaskIdle) refers to os_core.o(.bss) for OSTaskIdleStk
    os_core.o(i.OS_InitTaskIdle) refers to os_core.o(i.OS_TaskIdle) for OS_TaskIdle
    os_core.o(i.OS_InitTaskStat) refers to os_task.o(i.OSTaskCreateExt) for OSTaskCreateExt
    os_core.o(i.OS_InitTaskStat) refers to os_task.o(i.OSTaskNameSet) for OSTaskNameSet
    os_core.o(i.OS_InitTaskStat) refers to os_core.o(.bss) for OSTaskStatStk
    os_core.o(i.OS_InitTaskStat) refers to os_core.o(i.OS_TaskStat) for OS_TaskStat
    os_core.o(i.OS_Sched) refers to os_cpu_a.o(.text) for OS_CPU_SR_Save
    os_core.o(i.OS_Sched) refers to os_core.o(i.OS_SchedNew) for OS_SchedNew
    os_core.o(i.OS_Sched) refers to os_core.o(.data) for OSIntNesting
    os_core.o(i.OS_Sched) refers to os_core.o(.bss) for OSTCBPrioTbl
    os_core.o(i.OS_SchedNew) refers to os_core.o(.constdata) for OSUnMapTbl
    os_core.o(i.OS_SchedNew) refers to os_core.o(.data) for OSRdyGrp
    os_core.o(i.OS_TCBInit) refers to os_cpu_a.o(.text) for OS_CPU_SR_Save
    os_core.o(i.OS_TCBInit) refers to os_cpu_c.o(i.OSTCBInitHook) for OSTCBInitHook
    os_core.o(i.OS_TCBInit) refers to os_cpu_c.o(i.OSTaskCreateHook) for OSTaskCreateHook
    os_core.o(i.OS_TCBInit) refers to os_core.o(.data) for OSTCBFreeList
    os_core.o(i.OS_TCBInit) refers to os_core.o(.bss) for OSTCBPrioTbl
    os_core.o(i.OS_TaskIdle) refers to os_cpu_a.o(.text) for OS_CPU_SR_Save
    os_core.o(i.OS_TaskIdle) refers to os_cpu_c.o(i.OSTaskIdleHook) for OSTaskIdleHook
    os_core.o(i.OS_TaskIdle) refers to os_core.o(.data) for OSIdleCtr
    os_core.o(i.OS_TaskStat) refers to os_time.o(i.OSTimeDly) for OSTimeDly
    os_core.o(i.OS_TaskStat) refers to os_task.o(i.OSTaskSuspend) for OSTaskSuspend
    os_core.o(i.OS_TaskStat) refers to os_cpu_a.o(.text) for OS_CPU_SR_Save
    os_core.o(i.OS_TaskStat) refers to os_cpu_c.o(i.OSTaskStatHook) for OSTaskStatHook
    os_core.o(i.OS_TaskStat) refers to os_core.o(i.OS_TaskStatStkChk) for OS_TaskStatStkChk
    os_core.o(i.OS_TaskStat) refers to os_core.o(.data) for OSStatRdy
    os_core.o(i.OS_TaskStatStkChk) refers to os_task.o(i.OSTaskStkChk) for OSTaskStkChk
    os_core.o(i.OS_TaskStatStkChk) refers to os_core.o(.bss) for OSTCBPrioTbl
    os_flag.o(i.OSFlagAccept) refers to os_cpu_a.o(.text) for OS_CPU_SR_Save
    os_flag.o(i.OSFlagCreate) refers to os_cpu_a.o(.text) for OS_CPU_SR_Save
    os_flag.o(i.OSFlagCreate) refers to os_core.o(.data) for OSIntNesting
    os_flag.o(i.OSFlagDel) refers to os_cpu_a.o(.text) for OS_CPU_SR_Save
    os_flag.o(i.OSFlagDel) refers to os_flag.o(i.OS_FlagTaskRdy) for OS_FlagTaskRdy
    os_flag.o(i.OSFlagDel) refers to os_core.o(i.OS_Sched) for OS_Sched
    os_flag.o(i.OSFlagDel) refers to os_core.o(.data) for OSIntNesting
    os_flag.o(i.OSFlagNameGet) refers to os_cpu_a.o(.text) for OS_CPU_SR_Save
    os_flag.o(i.OSFlagNameGet) refers to os_core.o(i.OS_StrLen) for OS_StrLen
    os_flag.o(i.OSFlagNameGet) refers to os_core.o(.data) for OSIntNesting
    os_flag.o(i.OSFlagNameSet) refers to os_cpu_a.o(.text) for OS_CPU_SR_Save
    os_flag.o(i.OSFlagNameSet) refers to os_core.o(.data) for OSIntNesting
    os_flag.o(i.OSFlagPend) refers to os_cpu_a.o(.text) for OS_CPU_SR_Save
    os_flag.o(i.OSFlagPend) refers to os_flag.o(i.OS_FlagBlock) for OS_FlagBlock
    os_flag.o(i.OSFlagPend) refers to os_core.o(i.OS_Sched) for OS_Sched
    os_flag.o(i.OSFlagPend) refers to os_flag.o(i.OS_FlagUnlink) for OS_FlagUnlink
    os_flag.o(i.OSFlagPend) refers to os_core.o(.data) for OSIntNesting
    os_flag.o(i.OSFlagPendGetFlagsRdy) refers to os_cpu_a.o(.text) for OS_CPU_SR_Save
    os_flag.o(i.OSFlagPendGetFlagsRdy) refers to os_core.o(.data) for OSTCBCur
    os_flag.o(i.OSFlagPost) refers to os_cpu_a.o(.text) for OS_CPU_SR_Save
    os_flag.o(i.OSFlagPost) refers to os_flag.o(i.OS_FlagTaskRdy) for OS_FlagTaskRdy
    os_flag.o(i.OSFlagPost) refers to os_core.o(i.OS_Sched) for OS_Sched
    os_flag.o(i.OSFlagQuery) refers to os_cpu_a.o(.text) for OS_CPU_SR_Save
    os_flag.o(i.OS_FlagBlock) refers to os_core.o(.data) for OSTCBCur
    os_flag.o(i.OS_FlagInit) refers to os_core.o(i.OS_MemClr) for OS_MemClr
    os_flag.o(i.OS_FlagInit) refers to os_core.o(.bss) for OSFlagTbl
    os_flag.o(i.OS_FlagInit) refers to os_core.o(.data) for OSFlagFreeList
    os_flag.o(i.OS_FlagTaskRdy) refers to os_flag.o(i.OS_FlagUnlink) for OS_FlagUnlink
    os_flag.o(i.OS_FlagTaskRdy) refers to os_core.o(.data) for OSRdyGrp
    os_mbox.o(i.OSMboxAccept) refers to os_cpu_a.o(.text) for OS_CPU_SR_Save
    os_mbox.o(i.OSMboxCreate) refers to os_cpu_a.o(.text) for OS_CPU_SR_Save
    os_mbox.o(i.OSMboxCreate) refers to os_core.o(i.OS_EventWaitListInit) for OS_EventWaitListInit
    os_mbox.o(i.OSMboxCreate) refers to os_core.o(.data) for OSIntNesting
    os_mbox.o(i.OSMboxDel) refers to os_cpu_a.o(.text) for OS_CPU_SR_Save
    os_mbox.o(i.OSMboxDel) refers to os_core.o(i.OS_EventTaskRdy) for OS_EventTaskRdy
    os_mbox.o(i.OSMboxDel) refers to os_core.o(i.OS_Sched) for OS_Sched
    os_mbox.o(i.OSMboxDel) refers to os_core.o(.data) for OSIntNesting
    os_mbox.o(i.OSMboxPend) refers to os_cpu_a.o(.text) for OS_CPU_SR_Save
    os_mbox.o(i.OSMboxPend) refers to os_core.o(i.OS_EventTaskWait) for OS_EventTaskWait
    os_mbox.o(i.OSMboxPend) refers to os_core.o(i.OS_Sched) for OS_Sched
    os_mbox.o(i.OSMboxPend) refers to os_core.o(i.OS_EventTaskRemove) for OS_EventTaskRemove
    os_mbox.o(i.OSMboxPend) refers to os_core.o(.data) for OSIntNesting
    os_mbox.o(i.OSMboxPendAbort) refers to os_cpu_a.o(.text) for OS_CPU_SR_Save
    os_mbox.o(i.OSMboxPendAbort) refers to os_core.o(i.OS_EventTaskRdy) for OS_EventTaskRdy
    os_mbox.o(i.OSMboxPendAbort) refers to os_core.o(i.OS_Sched) for OS_Sched
    os_mbox.o(i.OSMboxPost) refers to os_cpu_a.o(.text) for OS_CPU_SR_Save
    os_mbox.o(i.OSMboxPost) refers to os_core.o(i.OS_EventTaskRdy) for OS_EventTaskRdy
    os_mbox.o(i.OSMboxPost) refers to os_core.o(i.OS_Sched) for OS_Sched
    os_mbox.o(i.OSMboxPostOpt) refers to os_cpu_a.o(.text) for OS_CPU_SR_Save
    os_mbox.o(i.OSMboxPostOpt) refers to os_core.o(i.OS_EventTaskRdy) for OS_EventTaskRdy
    os_mbox.o(i.OSMboxPostOpt) refers to os_core.o(i.OS_Sched) for OS_Sched
    os_mbox.o(i.OSMboxQuery) refers to os_cpu_a.o(.text) for OS_CPU_SR_Save
    os_mem.o(i.OSMemCreate) refers to os_cpu_a.o(.text) for OS_CPU_SR_Save
    os_mem.o(i.OSMemCreate) refers to os_core.o(.data) for OSMemFreeList
    os_mem.o(i.OSMemGet) refers to os_cpu_a.o(.text) for OS_CPU_SR_Save
    os_mem.o(i.OSMemNameGet) refers to os_cpu_a.o(.text) for OS_CPU_SR_Save
    os_mem.o(i.OSMemNameGet) refers to os_core.o(i.OS_StrLen) for OS_StrLen
    os_mem.o(i.OSMemNameGet) refers to os_core.o(.data) for OSIntNesting
    os_mem.o(i.OSMemNameSet) refers to os_cpu_a.o(.text) for OS_CPU_SR_Save
    os_mem.o(i.OSMemNameSet) refers to os_core.o(.data) for OSIntNesting
    os_mem.o(i.OSMemPut) refers to os_cpu_a.o(.text) for OS_CPU_SR_Save
    os_mem.o(i.OSMemQuery) refers to os_cpu_a.o(.text) for OS_CPU_SR_Save
    os_mem.o(i.OS_MemInit) refers to os_core.o(i.OS_MemClr) for OS_MemClr
    os_mem.o(i.OS_MemInit) refers to os_core.o(.bss) for OSMemTbl
    os_mem.o(i.OS_MemInit) refers to os_core.o(.data) for OSMemFreeList
    os_mutex.o(i.OSMutexAccept) refers to os_cpu_a.o(.text) for OS_CPU_SR_Save
    os_mutex.o(i.OSMutexAccept) refers to os_core.o(.data) for OSIntNesting
    os_mutex.o(i.OSMutexCreate) refers to os_cpu_a.o(.text) for OS_CPU_SR_Save
    os_mutex.o(i.OSMutexCreate) refers to os_core.o(i.OS_EventWaitListInit) for OS_EventWaitListInit
    os_mutex.o(i.OSMutexCreate) refers to os_core.o(.data) for OSIntNesting
    os_mutex.o(i.OSMutexCreate) refers to os_core.o(.bss) for OSTCBPrioTbl
    os_mutex.o(i.OSMutexDel) refers to os_cpu_a.o(.text) for OS_CPU_SR_Save
    os_mutex.o(i.OSMutexDel) refers to os_mutex.o(i.OSMutex_RdyAtPrio) for OSMutex_RdyAtPrio
    os_mutex.o(i.OSMutexDel) refers to os_core.o(i.OS_EventTaskRdy) for OS_EventTaskRdy
    os_mutex.o(i.OSMutexDel) refers to os_core.o(i.OS_Sched) for OS_Sched
    os_mutex.o(i.OSMutexDel) refers to os_core.o(.data) for OSIntNesting
    os_mutex.o(i.OSMutexDel) refers to os_core.o(.bss) for OSTCBPrioTbl
    os_mutex.o(i.OSMutexPend) refers to os_cpu_a.o(.text) for OS_CPU_SR_Save
    os_mutex.o(i.OSMutexPend) refers to os_core.o(i.OS_EventTaskWait) for OS_EventTaskWait
    os_mutex.o(i.OSMutexPend) refers to os_core.o(i.OS_Sched) for OS_Sched
    os_mutex.o(i.OSMutexPend) refers to os_core.o(i.OS_EventTaskRemove) for OS_EventTaskRemove
    os_mutex.o(i.OSMutexPend) refers to os_core.o(.data) for OSIntNesting
    os_mutex.o(i.OSMutexPend) refers to os_core.o(.bss) for OSTCBPrioTbl
    os_mutex.o(i.OSMutexPost) refers to os_cpu_a.o(.text) for OS_CPU_SR_Save
    os_mutex.o(i.OSMutexPost) refers to os_mutex.o(i.OSMutex_RdyAtPrio) for OSMutex_RdyAtPrio
    os_mutex.o(i.OSMutexPost) refers to os_core.o(i.OS_EventTaskRdy) for OS_EventTaskRdy
    os_mutex.o(i.OSMutexPost) refers to os_core.o(i.OS_Sched) for OS_Sched
    os_mutex.o(i.OSMutexPost) refers to os_core.o(.data) for OSIntNesting
    os_mutex.o(i.OSMutexPost) refers to os_core.o(.bss) for OSTCBPrioTbl
    os_mutex.o(i.OSMutexQuery) refers to os_cpu_a.o(.text) for OS_CPU_SR_Save
    os_mutex.o(i.OSMutexQuery) refers to os_core.o(.data) for OSIntNesting
    os_mutex.o(i.OSMutex_RdyAtPrio) refers to os_core.o(.data) for OSRdyTbl
    os_mutex.o(i.OSMutex_RdyAtPrio) refers to os_core.o(.bss) for OSTCBPrioTbl
    os_q.o(i.OSQAccept) refers to os_cpu_a.o(.text) for OS_CPU_SR_Save
    os_q.o(i.OSQCreate) refers to os_cpu_a.o(.text) for OS_CPU_SR_Save
    os_q.o(i.OSQCreate) refers to os_core.o(i.OS_EventWaitListInit) for OS_EventWaitListInit
    os_q.o(i.OSQCreate) refers to os_core.o(.data) for OSIntNesting
    os_q.o(i.OSQDel) refers to os_cpu_a.o(.text) for OS_CPU_SR_Save
    os_q.o(i.OSQDel) refers to os_core.o(i.OS_EventTaskRdy) for OS_EventTaskRdy
    os_q.o(i.OSQDel) refers to os_core.o(i.OS_Sched) for OS_Sched
    os_q.o(i.OSQDel) refers to os_core.o(.data) for OSIntNesting
    os_q.o(i.OSQFlush) refers to os_cpu_a.o(.text) for OS_CPU_SR_Save
    os_q.o(i.OSQPend) refers to os_cpu_a.o(.text) for OS_CPU_SR_Save
    os_q.o(i.OSQPend) refers to os_core.o(i.OS_EventTaskWait) for OS_EventTaskWait
    os_q.o(i.OSQPend) refers to os_core.o(i.OS_Sched) for OS_Sched
    os_q.o(i.OSQPend) refers to os_core.o(i.OS_EventTaskRemove) for OS_EventTaskRemove
    os_q.o(i.OSQPend) refers to os_core.o(.data) for OSIntNesting
    os_q.o(i.OSQPendAbort) refers to os_cpu_a.o(.text) for OS_CPU_SR_Save
    os_q.o(i.OSQPendAbort) refers to os_core.o(i.OS_EventTaskRdy) for OS_EventTaskRdy
    os_q.o(i.OSQPendAbort) refers to os_core.o(i.OS_Sched) for OS_Sched
    os_q.o(i.OSQPost) refers to os_cpu_a.o(.text) for OS_CPU_SR_Save
    os_q.o(i.OSQPost) refers to os_core.o(i.OS_EventTaskRdy) for OS_EventTaskRdy
    os_q.o(i.OSQPost) refers to os_core.o(i.OS_Sched) for OS_Sched
    os_q.o(i.OSQPostFront) refers to os_cpu_a.o(.text) for OS_CPU_SR_Save
    os_q.o(i.OSQPostFront) refers to os_core.o(i.OS_EventTaskRdy) for OS_EventTaskRdy
    os_q.o(i.OSQPostFront) refers to os_core.o(i.OS_Sched) for OS_Sched
    os_q.o(i.OSQPostOpt) refers to os_cpu_a.o(.text) for OS_CPU_SR_Save
    os_q.o(i.OSQPostOpt) refers to os_core.o(i.OS_EventTaskRdy) for OS_EventTaskRdy
    os_q.o(i.OSQPostOpt) refers to os_core.o(i.OS_Sched) for OS_Sched
    os_q.o(i.OSQQuery) refers to os_cpu_a.o(.text) for OS_CPU_SR_Save
    os_q.o(i.OS_QInit) refers to os_core.o(i.OS_MemClr) for OS_MemClr
    os_q.o(i.OS_QInit) refers to os_core.o(.bss) for OSQTbl
    os_q.o(i.OS_QInit) refers to os_core.o(.data) for OSQFreeList
    os_sem.o(i.OSSemAccept) refers to os_cpu_a.o(.text) for OS_CPU_SR_Save
    os_sem.o(i.OSSemCreate) refers to os_cpu_a.o(.text) for OS_CPU_SR_Save
    os_sem.o(i.OSSemCreate) refers to os_core.o(i.OS_EventWaitListInit) for OS_EventWaitListInit
    os_sem.o(i.OSSemCreate) refers to os_core.o(.data) for OSIntNesting
    os_sem.o(i.OSSemDel) refers to os_cpu_a.o(.text) for OS_CPU_SR_Save
    os_sem.o(i.OSSemDel) refers to os_core.o(i.OS_EventTaskRdy) for OS_EventTaskRdy
    os_sem.o(i.OSSemDel) refers to os_core.o(i.OS_Sched) for OS_Sched
    os_sem.o(i.OSSemDel) refers to os_core.o(.data) for OSIntNesting
    os_sem.o(i.OSSemPend) refers to os_cpu_a.o(.text) for OS_CPU_SR_Save
    os_sem.o(i.OSSemPend) refers to os_core.o(i.OS_EventTaskWait) for OS_EventTaskWait
    os_sem.o(i.OSSemPend) refers to os_core.o(i.OS_Sched) for OS_Sched
    os_sem.o(i.OSSemPend) refers to os_core.o(i.OS_EventTaskRemove) for OS_EventTaskRemove
    os_sem.o(i.OSSemPend) refers to os_core.o(.data) for OSIntNesting
    os_sem.o(i.OSSemPendAbort) refers to os_cpu_a.o(.text) for OS_CPU_SR_Save
    os_sem.o(i.OSSemPendAbort) refers to os_core.o(i.OS_EventTaskRdy) for OS_EventTaskRdy
    os_sem.o(i.OSSemPendAbort) refers to os_core.o(i.OS_Sched) for OS_Sched
    os_sem.o(i.OSSemPost) refers to os_cpu_a.o(.text) for OS_CPU_SR_Save
    os_sem.o(i.OSSemPost) refers to os_core.o(i.OS_EventTaskRdy) for OS_EventTaskRdy
    os_sem.o(i.OSSemPost) refers to os_core.o(i.OS_Sched) for OS_Sched
    os_sem.o(i.OSSemQuery) refers to os_cpu_a.o(.text) for OS_CPU_SR_Save
    os_sem.o(i.OSSemSet) refers to os_cpu_a.o(.text) for OS_CPU_SR_Save
    os_task.o(i.OSTaskChangePrio) refers to os_cpu_a.o(.text) for OS_CPU_SR_Save
    os_task.o(i.OSTaskChangePrio) refers to os_core.o(i.OS_Sched) for OS_Sched
    os_task.o(i.OSTaskChangePrio) refers to os_core.o(.bss) for OSTCBPrioTbl
    os_task.o(i.OSTaskChangePrio) refers to os_core.o(.data) for OSTCBCur
    os_task.o(i.OSTaskCreate) refers to os_cpu_a.o(.text) for OS_CPU_SR_Save
    os_task.o(i.OSTaskCreate) refers to os_cpu_c.o(i.OSTaskStkInit) for OSTaskStkInit
    os_task.o(i.OSTaskCreate) refers to os_core.o(i.OS_TCBInit) for OS_TCBInit
    os_task.o(i.OSTaskCreate) refers to os_core.o(i.OS_Sched) for OS_Sched
    os_task.o(i.OSTaskCreate) refers to os_core.o(.data) for OSIntNesting
    os_task.o(i.OSTaskCreate) refers to os_core.o(.bss) for OSTCBPrioTbl
    os_task.o(i.OSTaskCreateExt) refers to os_cpu_a.o(.text) for OS_CPU_SR_Save
    os_task.o(i.OSTaskCreateExt) refers to os_task.o(i.OS_TaskStkClr) for OS_TaskStkClr
    os_task.o(i.OSTaskCreateExt) refers to os_cpu_c.o(i.OSTaskStkInit) for OSTaskStkInit
    os_task.o(i.OSTaskCreateExt) refers to os_core.o(i.OS_TCBInit) for OS_TCBInit
    os_task.o(i.OSTaskCreateExt) refers to os_core.o(i.OS_Sched) for OS_Sched
    os_task.o(i.OSTaskCreateExt) refers to os_core.o(.data) for OSIntNesting
    os_task.o(i.OSTaskCreateExt) refers to os_core.o(.bss) for OSTCBPrioTbl
    os_task.o(i.OSTaskDel) refers to os_cpu_a.o(.text) for OS_CPU_SR_Save
    os_task.o(i.OSTaskDel) refers to os_core.o(i.OS_EventTaskRemove) for OS_EventTaskRemove
    os_task.o(i.OSTaskDel) refers to os_core.o(i.OS_EventTaskRemoveMulti) for OS_EventTaskRemoveMulti
    os_task.o(i.OSTaskDel) refers to os_flag.o(i.OS_FlagUnlink) for OS_FlagUnlink
    os_task.o(i.OSTaskDel) refers to os_core.o(i.OS_Dummy) for OS_Dummy
    os_task.o(i.OSTaskDel) refers to os_cpu_c.o(i.OSTaskDelHook) for OSTaskDelHook
    os_task.o(i.OSTaskDel) refers to os_core.o(i.OS_Sched) for OS_Sched
    os_task.o(i.OSTaskDel) refers to os_core.o(.data) for OSIntNesting
    os_task.o(i.OSTaskDel) refers to os_core.o(.bss) for OSTCBPrioTbl
    os_task.o(i.OSTaskDelReq) refers to os_cpu_a.o(.text) for OS_CPU_SR_Save
    os_task.o(i.OSTaskDelReq) refers to os_core.o(.data) for OSTCBCur
    os_task.o(i.OSTaskDelReq) refers to os_core.o(.bss) for OSTCBPrioTbl
    os_task.o(i.OSTaskNameGet) refers to os_cpu_a.o(.text) for OS_CPU_SR_Save
    os_task.o(i.OSTaskNameGet) refers to os_core.o(i.OS_StrLen) for OS_StrLen
    os_task.o(i.OSTaskNameGet) refers to os_core.o(.data) for OSIntNesting
    os_task.o(i.OSTaskNameGet) refers to os_core.o(.bss) for OSTCBPrioTbl
    os_task.o(i.OSTaskNameSet) refers to os_cpu_a.o(.text) for OS_CPU_SR_Save
    os_task.o(i.OSTaskNameSet) refers to os_core.o(.data) for OSIntNesting
    os_task.o(i.OSTaskNameSet) refers to os_core.o(.bss) for OSTCBPrioTbl
    os_task.o(i.OSTaskQuery) refers to os_cpu_a.o(.text) for OS_CPU_SR_Save
    os_task.o(i.OSTaskQuery) refers to os_core.o(i.OS_MemCopy) for OS_MemCopy
    os_task.o(i.OSTaskQuery) refers to os_core.o(.data) for OSTCBCur
    os_task.o(i.OSTaskQuery) refers to os_core.o(.bss) for OSTCBPrioTbl
    os_task.o(i.OSTaskRegGet) refers to os_cpu_a.o(.text) for OS_CPU_SR_Save
    os_task.o(i.OSTaskRegGet) refers to os_core.o(.data) for OSTCBCur
    os_task.o(i.OSTaskRegGet) refers to os_core.o(.bss) for OSTCBPrioTbl
    os_task.o(i.OSTaskRegSet) refers to os_cpu_a.o(.text) for OS_CPU_SR_Save
    os_task.o(i.OSTaskRegSet) refers to os_core.o(.data) for OSTCBCur
    os_task.o(i.OSTaskRegSet) refers to os_core.o(.bss) for OSTCBPrioTbl
    os_task.o(i.OSTaskResume) refers to os_cpu_a.o(.text) for OS_CPU_SR_Save
    os_task.o(i.OSTaskResume) refers to os_core.o(i.OS_Sched) for OS_Sched
    os_task.o(i.OSTaskResume) refers to os_core.o(.bss) for OSTCBPrioTbl
    os_task.o(i.OSTaskResume) refers to os_core.o(.data) for OSRdyGrp
    os_task.o(i.OSTaskStkChk) refers to os_cpu_a.o(.text) for OS_CPU_SR_Save
    os_task.o(i.OSTaskStkChk) refers to os_core.o(.data) for OSTCBCur
    os_task.o(i.OSTaskStkChk) refers to os_core.o(.bss) for OSTCBPrioTbl
    os_task.o(i.OSTaskSuspend) refers to os_cpu_a.o(.text) for OS_CPU_SR_Save
    os_task.o(i.OSTaskSuspend) refers to os_core.o(i.OS_Sched) for OS_Sched
    os_task.o(i.OSTaskSuspend) refers to os_core.o(.data) for OSTCBCur
    os_task.o(i.OSTaskSuspend) refers to os_core.o(.bss) for OSTCBPrioTbl
    os_task.o(i.OS_TaskReturn) refers to os_apphooks.o(i.OSTaskReturnHook) for OSTaskReturnHook
    os_task.o(i.OS_TaskReturn) refers to os_task.o(i.OSTaskDel) for OSTaskDel
    os_task.o(i.OS_TaskReturn) refers to os_core.o(.data) for OSTCBCur
    os_time.o(i.OSTimeDly) refers to os_cpu_a.o(.text) for OS_CPU_SR_Save
    os_time.o(i.OSTimeDly) refers to os_core.o(i.OS_Sched) for OS_Sched
    os_time.o(i.OSTimeDly) refers to os_core.o(.data) for OSIntNesting
    os_time.o(i.OSTimeDlyHMSM) refers to os_time.o(i.OSTimeDly) for OSTimeDly
    os_time.o(i.OSTimeDlyHMSM) refers to os_core.o(.data) for OSIntNesting
    os_time.o(i.OSTimeDlyResume) refers to os_cpu_a.o(.text) for OS_CPU_SR_Save
    os_time.o(i.OSTimeDlyResume) refers to os_core.o(i.OS_Sched) for OS_Sched
    os_time.o(i.OSTimeDlyResume) refers to os_core.o(.bss) for OSTCBPrioTbl
    os_time.o(i.OSTimeDlyResume) refers to os_core.o(.data) for OSRdyGrp
    os_time.o(i.OSTimeGet) refers to os_cpu_a.o(.text) for OS_CPU_SR_Save
    os_time.o(i.OSTimeGet) refers to os_core.o(.data) for OSTime
    os_time.o(i.OSTimeSet) refers to os_cpu_a.o(.text) for OS_CPU_SR_Save
    os_time.o(i.OSTimeSet) refers to os_core.o(.data) for OSTime
    os_tmr.o(i.OSTmrCreate) refers to os_core.o(i.OSSchedLock) for OSSchedLock
    os_tmr.o(i.OSTmrCreate) refers to os_tmr.o(i.OSTmr_Alloc) for OSTmr_Alloc
    os_tmr.o(i.OSTmrCreate) refers to os_core.o(i.OSSchedUnlock) for OSSchedUnlock
    os_tmr.o(i.OSTmrCreate) refers to os_core.o(.data) for OSIntNesting
    os_tmr.o(i.OSTmrDel) refers to os_core.o(i.OSSchedLock) for OSSchedLock
    os_tmr.o(i.OSTmrDel) refers to os_tmr.o(i.OSTmr_Unlink) for OSTmr_Unlink
    os_tmr.o(i.OSTmrDel) refers to os_tmr.o(i.OSTmr_Free) for OSTmr_Free
    os_tmr.o(i.OSTmrDel) refers to os_core.o(i.OSSchedUnlock) for OSSchedUnlock
    os_tmr.o(i.OSTmrDel) refers to os_core.o(.data) for OSIntNesting
    os_tmr.o(i.OSTmrNameGet) refers to os_core.o(i.OSSchedLock) for OSSchedLock
    os_tmr.o(i.OSTmrNameGet) refers to os_core.o(i.OS_StrLen) for OS_StrLen
    os_tmr.o(i.OSTmrNameGet) refers to os_core.o(i.OSSchedUnlock) for OSSchedUnlock
    os_tmr.o(i.OSTmrNameGet) refers to os_core.o(.data) for OSIntNesting
    os_tmr.o(i.OSTmrRemainGet) refers to os_core.o(i.OSSchedLock) for OSSchedLock
    os_tmr.o(i.OSTmrRemainGet) refers to os_core.o(i.OSSchedUnlock) for OSSchedUnlock
    os_tmr.o(i.OSTmrRemainGet) refers to os_core.o(.data) for OSIntNesting
    os_tmr.o(i.OSTmrSignal) refers to os_sem.o(i.OSSemPost) for OSSemPost
    os_tmr.o(i.OSTmrSignal) refers to os_core.o(.data) for OSTmrSemSignal
    os_tmr.o(i.OSTmrStart) refers to os_core.o(i.OSSchedLock) for OSSchedLock
    os_tmr.o(i.OSTmrStart) refers to os_tmr.o(i.OSTmr_Unlink) for OSTmr_Unlink
    os_tmr.o(i.OSTmrStart) refers to os_tmr.o(i.OSTmr_Link) for OSTmr_Link
    os_tmr.o(i.OSTmrStart) refers to os_core.o(i.OSSchedUnlock) for OSSchedUnlock
    os_tmr.o(i.OSTmrStart) refers to os_core.o(.data) for OSIntNesting
    os_tmr.o(i.OSTmrStateGet) refers to os_core.o(i.OSSchedLock) for OSSchedLock
    os_tmr.o(i.OSTmrStateGet) refers to os_core.o(i.OSSchedUnlock) for OSSchedUnlock
    os_tmr.o(i.OSTmrStateGet) refers to os_core.o(.data) for OSIntNesting
    os_tmr.o(i.OSTmrStop) refers to os_core.o(i.OSSchedLock) for OSSchedLock
    os_tmr.o(i.OSTmrStop) refers to os_tmr.o(i.OSTmr_Unlink) for OSTmr_Unlink
    os_tmr.o(i.OSTmrStop) refers to os_core.o(i.OSSchedUnlock) for OSSchedUnlock
    os_tmr.o(i.OSTmrStop) refers to os_core.o(.data) for OSIntNesting
    os_tmr.o(i.OSTmr_Alloc) refers to os_core.o(.data) for OSTmrFreeList
    os_tmr.o(i.OSTmr_Free) refers to os_core.o(.data) for OSTmrFreeList
    os_tmr.o(i.OSTmr_Init) refers to os_core.o(i.OS_MemClr) for OS_MemClr
    os_tmr.o(i.OSTmr_Init) refers to os_sem.o(i.OSSemCreate) for OSSemCreate
    os_tmr.o(i.OSTmr_Init) refers to os_core.o(i.OSEventNameSet) for OSEventNameSet
    os_tmr.o(i.OSTmr_Init) refers to os_tmr.o(i.OSTmr_InitTask) for OSTmr_InitTask
    os_tmr.o(i.OSTmr_Init) refers to os_core.o(.bss) for OSTmrTbl
    os_tmr.o(i.OSTmr_Init) refers to os_core.o(.data) for OSTmrTime
    os_tmr.o(i.OSTmr_InitTask) refers to os_task.o(i.OSTaskCreateExt) for OSTaskCreateExt
    os_tmr.o(i.OSTmr_InitTask) refers to os_task.o(i.OSTaskNameSet) for OSTaskNameSet
    os_tmr.o(i.OSTmr_InitTask) refers to os_core.o(.bss) for OSTmrTaskStk
    os_tmr.o(i.OSTmr_InitTask) refers to os_tmr.o(i.OSTmr_Task) for OSTmr_Task
    os_tmr.o(i.OSTmr_Link) refers to os_core.o(.data) for OSTmrTime
    os_tmr.o(i.OSTmr_Link) refers to os_core.o(.bss) for OSTmrWheelTbl
    os_tmr.o(i.OSTmr_Task) refers to os_sem.o(i.OSSemPend) for OSSemPend
    os_tmr.o(i.OSTmr_Task) refers to os_core.o(i.OSSchedLock) for OSSchedLock
    os_tmr.o(i.OSTmr_Task) refers to os_tmr.o(i.OSTmr_Unlink) for OSTmr_Unlink
    os_tmr.o(i.OSTmr_Task) refers to os_tmr.o(i.OSTmr_Link) for OSTmr_Link
    os_tmr.o(i.OSTmr_Task) refers to os_core.o(i.OSSchedUnlock) for OSSchedUnlock
    os_tmr.o(i.OSTmr_Task) refers to os_core.o(.data) for OSTmrSemSignal
    os_tmr.o(i.OSTmr_Task) refers to os_core.o(.bss) for OSTmrWheelTbl
    os_tmr.o(i.OSTmr_Unlink) refers to os_core.o(.bss) for OSTmrWheelTbl
    cpu_c.o(i.CPU_IntSrcDis) refers to cpu_a.o(.text) for CPU_SR_Save
    cpu_c.o(i.CPU_IntSrcEn) refers to cpu_a.o(.text) for CPU_SR_Save
    cpu_c.o(i.CPU_IntSrcPrioGet) refers to cpu_a.o(.text) for CPU_SR_Save
    cpu_c.o(i.CPU_IntSrcPrioSet) refers to cpu_a.o(.text) for CPU_RevBits
    lib_mem.o(i.Mem_Clr) refers to lib_mem.o(i.Mem_Set) for Mem_Set
    lib_str.o(i.Str_Char_Last) refers to lib_str.o(i.Str_Len) for Str_Len
    lib_str.o(i.Str_Str) refers to lib_str.o(i.Str_Len) for Str_Len
    lib_str.o(i.Str_Str) refers to lib_str.o(i.Str_Cmp_N) for Str_Cmp_N
    api_lib.o(i.get_tbim) refers to sys_arch.o(i.sys_sem_new) for sys_sem_new
    api_lib.o(i.get_tbim) refers to ssnp.o(i.ssnp_apimsg_alias_list) for ssnp_apimsg_alias_list
    api_lib.o(i.get_tbim) refers to api_msg.o(i.do_get_alias_alloc_state) for do_get_alias_alloc_state
    api_lib.o(i.neconn_recv_data) refers to sys_arch.o(i.sys_arch_mbox_fetch) for sys_arch_mbox_fetch
    api_lib.o(i.netconn_alloc) refers to mem.o(i.mem_alloc) for mem_alloc
    api_lib.o(i.netconn_alloc) refers to printfa.o(i.__0printf) for __2printf
    api_lib.o(i.netconn_alloc) refers to memp.o(i.memp_free) for memp_free
    api_lib.o(i.netconn_alloc) refers to sys_arch.o(i.sys_sem_new) for sys_sem_new
    api_lib.o(i.netconn_bind) refers to ssnp.o(i.ssnp_apimsg) for ssnp_apimsg
    api_lib.o(i.netconn_bind) refers to api_msg.o(i.do_bind) for do_bind
    api_lib.o(i.netconn_connect) refers to ssnp.o(i.ssnp_apimsg) for ssnp_apimsg
    api_lib.o(i.netconn_connect) refers to api_msg.o(i.do_connect) for do_connect
    api_lib.o(i.netconn_delete) refers to ssnp.o(i.ssnp_apimsg) for ssnp_apimsg
    api_lib.o(i.netconn_delete) refers to api_lib.o(i.netconn_free) for netconn_free
    api_lib.o(i.netconn_delete) refers to api_msg.o(i.do_delconn) for do_delconn
    api_lib.o(i.netconn_disconnect) refers to ssnp.o(i.ssnp_apimsg) for ssnp_apimsg
    api_lib.o(i.netconn_disconnect) refers to api_msg.o(i.do_disconnect) for do_disconnect
    api_lib.o(i.netconn_free) refers to printfa.o(i.__0printf) for __2printf
    api_lib.o(i.netconn_free) refers to sys_arch.o(i.sys_sem_free) for sys_sem_free
    api_lib.o(i.netconn_free) refers to memp.o(i.memp_free) for memp_free
    api_lib.o(i.netconn_new) refers to api_lib.o(i.netconn_alloc) for netconn_alloc
    api_lib.o(i.netconn_new) refers to ssnp.o(i.ssnp_apimsg) for ssnp_apimsg
    api_lib.o(i.netconn_new) refers to sys_arch.o(i.sys_sem_free) for sys_sem_free
    api_lib.o(i.netconn_new) refers to sys_arch.o(i.sys_mbox_free) for sys_mbox_free
    api_lib.o(i.netconn_new) refers to memp.o(i.memp_free) for memp_free
    api_lib.o(i.netconn_new) refers to api_msg.o(i.do_newconn) for do_newconn
    api_lib.o(i.netconn_recv) refers to api_lib.o(i.neconn_recv_data) for neconn_recv_data
    api_lib.o(i.netconn_recv_unblock) refers to sys_arch.o(i.sys_arch_mbox_fetch_unblock) for sys_arch_mbox_fetch_unblock
    api_lib.o(i.netconn_recvtrigger) refers to api_lib.o(i.netconn_recv) for netconn_recv
    api_lib.o(i.netconn_recvtrigger) refers to netbuf.o(i.netbuf_delete) for netbuf_delete
    api_lib.o(i.netconn_recvtrigger_buf) refers to api_lib.o(i.netconn_recv) for netconn_recv
    api_lib.o(i.netconn_recvtrigger_unblock) refers to sys_arch.o(i.sys_arch_mbox_fetch_unblock) for sys_arch_mbox_fetch_unblock
    api_lib.o(i.netconn_recvtrigger_unblock) refers to netbuf.o(i.netbuf_delete) for netbuf_delete
    api_lib.o(i.netconn_send) refers to ssnp.o(i.ssnp_apimsg) for ssnp_apimsg
    api_lib.o(i.netconn_send) refers to api_msg.o(i.do_send) for do_send
    api_lib.o(i.netconn_sendto) refers to api_lib.o(i.netconn_send) for netconn_send
    api_lib.o(i.netconn_sendtrigger) refers to api_lib.o(i.netconn_send) for netconn_send
    api_msg.o(i.do_bind) refers to dp.o(i.dp_bind) for dp_bind
    api_msg.o(i.do_bind) refers to sdp.o(i.sdp_bind) for sdp_bind
    api_msg.o(i.do_bind) refers to tp.o(i.tp_bind) for tp_bind
    api_msg.o(i.do_bind) refers to sys_arch.o(i.sys_sem_signal) for sys_sem_signal
    api_msg.o(i.do_connect) refers to dp.o(i.dp_connect) for dp_connect
    api_msg.o(i.do_connect) refers to sdp.o(i.sdp_connect) for sdp_connect
    api_msg.o(i.do_connect) refers to tp.o(i.tp_connect) for tp_connect
    api_msg.o(i.do_connect) refers to sys_arch.o(i.sys_sem_signal) for sys_sem_signal
    api_msg.o(i.do_delconn) refers to api_msg.o(i.netconn_drain) for netconn_drain
    api_msg.o(i.do_delconn) refers to dp.o(i.dp_remove) for dp_remove
    api_msg.o(i.do_delconn) refers to sdp.o(i.sdp_remove) for sdp_remove
    api_msg.o(i.do_delconn) refers to tp.o(i.tp_remove) for tp_remove
    api_msg.o(i.do_delconn) refers to sys_arch.o(i.sys_sem_signal) for sys_sem_signal
    api_msg.o(i.do_disconnect) refers to dp.o(i.dp_disconnect) for dp_disconnect
    api_msg.o(i.do_disconnect) refers to sdp.o(i.sdp_disconnect) for sdp_disconnect
    api_msg.o(i.do_disconnect) refers to tp.o(i.tp_disconnect) for tp_disconnect
    api_msg.o(i.do_disconnect) refers to sys_arch.o(i.sys_sem_signal) for sys_sem_signal
    api_msg.o(i.do_get_alias_alloc_state) refers to ethbcp.o(i.get_alias_alloc_state) for get_alias_alloc_state
    api_msg.o(i.do_get_alias_alloc_state) refers to ethbcp.o(i.get_done_list) for get_done_list
    api_msg.o(i.do_get_alias_alloc_state) refers to sys_arch.o(i.sys_sem_signal) for sys_sem_signal
    api_msg.o(i.do_newconn) refers to api_msg.o(i.pcb_new) for pcb_new
    api_msg.o(i.do_newconn) refers to sys_arch.o(i.sys_sem_signal) for sys_sem_signal
    api_msg.o(i.do_send) refers to dp.o(i.dp_sendto) for dp_sendto
    api_msg.o(i.do_send) refers to printfa.o(i.__0printf) for __2printf
    api_msg.o(i.do_send) refers to sdp.o(i.sdp_sendto) for sdp_sendto
    api_msg.o(i.do_send) refers to tp.o(i.tp_sendto) for tp_sendto
    api_msg.o(i.do_send) refers to sys_arch.o(i.sys_sem_signal) for sys_sem_signal
    api_msg.o(i.netconn_drain) refers to netbuf.o(i.netbuf_delete) for netbuf_delete
    api_msg.o(i.netconn_drain) refers to sys_arch.o(i.sys_arch_mbox_fetch) for sys_arch_mbox_fetch
    api_msg.o(i.netconn_drain) refers to sys_arch.o(i.sys_mbox_free) for sys_mbox_free
    api_msg.o(i.pcb_new) refers to dp.o(i.dp_new) for dp_new
    api_msg.o(i.pcb_new) refers to dp.o(i.dp_recv) for dp_recv
    api_msg.o(i.pcb_new) refers to sdp.o(i.sdp_new) for sdp_new
    api_msg.o(i.pcb_new) refers to sdp.o(i.sdp_recv) for sdp_recv
    api_msg.o(i.pcb_new) refers to tp.o(i.tp_new) for tp_new
    api_msg.o(i.pcb_new) refers to tp.o(i.tp_recv) for tp_recv
    api_msg.o(i.pcb_new) refers to api_msg.o(i.recv_dp) for recv_dp
    api_msg.o(i.pcb_new) refers to api_msg.o(i.recv_sdp) for recv_sdp
    api_msg.o(i.pcb_new) refers to api_msg.o(i.recv_tp) for recv_tp
    api_msg.o(i.recv_dp) refers to pbuf.o(i.pbuf_free) for pbuf_free
    api_msg.o(i.recv_dp) refers to memp.o(i.memp_alloc) for memp_alloc
    api_msg.o(i.recv_dp) refers to sys_arch.o(i.sys_mbox_trypost) for sys_mbox_trypost
    api_msg.o(i.recv_dp) refers to netbuf.o(i.netbuf_delete) for netbuf_delete
    api_msg.o(i.recv_sdp) refers to printfa.o(i.__0printf) for __2printf
    api_msg.o(i.recv_sdp) refers to pbuf.o(i.pbuf_free) for pbuf_free
    api_msg.o(i.recv_sdp) refers to memp.o(i.memp_alloc) for memp_alloc
    api_msg.o(i.recv_sdp) refers to sys_arch.o(i.sys_mbox_trypost) for sys_mbox_trypost
    api_msg.o(i.recv_sdp) refers to netbuf.o(i.netbuf_delete) for netbuf_delete
    api_msg.o(i.recv_tp) refers to memp.o(i.memp_alloc) for memp_alloc
    api_msg.o(i.recv_tp) refers to sys_arch.o(i.sys_mbox_trypost) for sys_mbox_trypost
    api_msg.o(i.recv_tp) refers to netbuf.o(i.netbuf_delete) for netbuf_delete
    dp.o(i.add_pad_pbuf) refers to memp.o(i.memp_alloc) for memp_alloc
    dp.o(i.add_pad_pbuf) refers to printfa.o(i.__0printf) for __2printf
    dp.o(i.dp_bind) refers to dp.o(.data) for dp_pcbs
    dp.o(i.dp_connect) refers to dp.o(.data) for dp_pcbs
    dp.o(i.dp_input) refers to printfa.o(i.__0printf) for __2printf
    dp.o(i.dp_input) refers to pbuf.o(i.pbuf_free) for pbuf_free
    dp.o(i.dp_input) refers to dp.o(i.set_status_word_protocol_error) for set_status_word_protocol_error
    dp.o(i.dp_input) refers to inet_chksum.o(i.inet_chksum) for inet_chksum
    dp.o(i.dp_input) refers to pbuf.o(i.pbuf_realloc) for pbuf_realloc
    dp.o(i.dp_input) refers to dp.o(i.addr_check) for addr_check
    dp.o(i.dp_input) refers to pbuf.o(i.pbuf_header) for pbuf_header
    dp.o(i.dp_input) refers to dp.o(i.isbroadcast) for isbroadcast
    dp.o(i.dp_input) refers to dp.o(.data) for dp_pcbs
    dp.o(i.dp_new) refers to memp.o(i.memp_alloc) for memp_alloc
    dp.o(i.dp_new) refers to memseta.o(.text) for __aeabi_memclr4
    dp.o(i.dp_output) refers to dp.o(i.checksum) for checksum
    dp.o(i.dp_output) refers to dp.o(i.dp_frag_output) for dp_frag_output
    dp.o(i.dp_remove) refers to memp.o(i.memp_free) for memp_free
    dp.o(i.dp_remove) refers to dp.o(.data) for dp_pcbs
    dp.o(i.dp_send) refers to dp.o(i.dp_sendto) for dp_sendto
    dp.o(i.dp_sendto) refers to dp.o(i.ip_route) for ip_route
    dp.o(i.dp_sendto) refers to dp.o(i.dp_sendto_if) for dp_sendto_if
    dp.o(i.dp_sendto_if) refers to pbuf.o(i.pbuf_header) for pbuf_header
    dp.o(i.dp_sendto_if) refers to pbuf.o(i.pbuf_alloc) for pbuf_alloc
    dp.o(i.dp_sendto_if) refers to printfa.o(i.__0printf) for __2printf
    dp.o(i.dp_sendto_if) refers to pbuf.o(i.pbuf_chain) for pbuf_chain
    dp.o(i.dp_sendto_if) refers to dp.o(i.add_pad_pbuf) for add_pad_pbuf
    dp.o(i.dp_sendto_if) refers to pbuf.o(i.pbuf_free) for pbuf_free
    dp.o(i.dp_sendto_if) refers to memp.o(i.memp_free) for memp_free
    dp.o(i.ip_route) refers to netif.o(.data) for netif_list
    ethbcp.o(i.InitiateDiscovery) refers to pbuf.o(i.pbuf_alloc) for pbuf_alloc
    ethbcp.o(i.InitiateDiscovery) refers to printfa.o(i.__0printf) for __2printf
    ethbcp.o(i.InitiateDiscovery) refers to pbuf.o(i.pbuf_free) for pbuf_free
    ethbcp.o(i.InitiateDiscovery) refers to ethbcp.o(.data) for tbc_dll_state
    ethbcp.o(i.TBC_DLL_init) refers to pbuf.o(i.pbuf_alloc) for pbuf_alloc
    ethbcp.o(i.TBC_DLL_init) refers to printfa.o(i.__0printf) for __2printf
    ethbcp.o(i.TBC_DLL_init) refers to ethernetif.o(i.set_mac_address) for set_mac_address
    ethbcp.o(i.TBC_DLL_init) refers to ethbcp.o(.data) for tbc_dll_state
    ethbcp.o(i.ethbcp_input) refers to ethbcp.o(i.ethbcp_input_check) for ethbcp_input_check
    ethbcp.o(i.ethbcp_input) refers to printfa.o(i.__0printf) for __2printf
    ethbcp.o(i.ethbcp_input) refers to pbuf.o(i.pbuf_free) for pbuf_free
    ethbcp.o(i.ethbcp_input) refers to alias_map.o(i.alloc_alias_map) for alloc_alias_map
    ethbcp.o(i.ethbcp_input) refers to alias_state.o(i.add_alias_pending) for add_alias_pending
    ethbcp.o(i.ethbcp_input) refers to ethbcp.o(i.send_assign_alias_msg) for send_assign_alias_msg
    ethbcp.o(i.ethbcp_input) refers to alias_state.o(i.is_exist_in_pending_list) for is_exist_in_pending_list
    ethbcp.o(i.ethbcp_input) refers to alias_state.o(i.alias_done) for alias_done
    ethbcp.o(i.ethbcp_input) refers to ethbcp.o(.data) for tbc_dll_state
    ethbcp.o(i.ethbcp_input_check) refers to ethbcp.o(i.ethbcp_FCS_check) for ethbcp_FCS_check
    ethbcp.o(i.ethbcp_input_check) refers to printfa.o(i.__0printf) for __2printf
    ethbcp.o(i.ethbcp_input_check) refers to pbuf.o(i.pbuf_free) for pbuf_free
    ethbcp.o(i.ethbcp_input_check) refers to ethbcp.o(i.set_status_word_bad_frame_received) for set_status_word_bad_frame_received
    ethbcp.o(i.ethbcp_output) refers to pbuf.o(i.pbuf_header) for pbuf_header
    ethbcp.o(i.ethbcp_output) refers to pbuf.o(i.pbuf_alloc) for pbuf_alloc
    ethbcp.o(i.ethbcp_output) refers to printfa.o(i.__0printf) for __2printf
    ethbcp.o(i.ethbcp_output) refers to pbuf.o(i.pbuf_chain) for pbuf_chain
    ethbcp.o(i.ethbcp_output) refers to pbuf.o(i.pbuf_free) for pbuf_free
    ethbcp.o(i.ethernet_input) refers to printfa.o(i.__0printf) for __2printf
    ethbcp.o(i.ethernet_input) refers to pbuf.o(i.pbuf_free) for pbuf_free
    ethbcp.o(i.ethernet_input) refers to ethbcp.o(i.ethbcp_input) for ethbcp_input
    ethbcp.o(i.ethernet_input) refers to pbuf.o(i.pbuf_header) for pbuf_header
    ethbcp.o(i.ethernet_input) refers to dp.o(i.dp_input) for dp_input
    ethbcp.o(i.ethernet_input) refers to sdp.o(i.sdp_input) for sdp_input
    ethbcp.o(i.ethernet_input) refers to tp.o(i.tp_input) for tp_input
    ethbcp.o(i.get_alias_alloc_state) refers to ethbcp.o(.data) for alias_alloc_done
    ethbcp.o(i.get_done_list) refers to alias_state.o(i.get_alias_done_list) for get_alias_done_list
    ethbcp.o(i.get_done_list) refers to printfa.o(i.__0printf) for __2printf
    ethbcp.o(i.is_reflect_reply_ok) refers to ethbcp.o(.data) for tbc_dll_state
    ethbcp.o(i.send_assign_alias_msg) refers to pbuf.o(i.pbuf_alloc) for pbuf_alloc
    ethbcp.o(i.send_assign_alias_msg) refers to printfa.o(i.__0printf) for __2printf
    ethbcp.o(i.send_assign_alias_msg) refers to pbuf.o(i.pbuf_free) for pbuf_free
    ethbcp.o(i.send_assign_alias_msg) refers to ethbcp.o(.data) for tbc_dll_state
    ethbcp.o(i.send_assign_time_slot_msg) refers to printfa.o(i.__0printf) for __2printf
    ethbcp.o(i.send_assign_time_slot_msg) refers to ethbcp.o(.data) for time_slot_msg
    ethbcp.o(i.send_begin_of_epoch_msg) refers to printfa.o(i.__0printf) for __2printf
    ethbcp.o(i.send_begin_of_epoch_msg) refers to ethbcp.o(.data) for time_slot_msg
    ethbcp.o(i.send_define_epoch_msg) refers to printfa.o(i.__0printf) for __2printf
    ethbcp.o(i.send_define_epoch_msg) refers to ethbcp.o(.data) for time_slot_msg
    ethbcp.o(i.send_reflect_msg) refers to printfa.o(i.__0printf) for __2printf
    ethbcp.o(i.send_reflect_msg) refers to ethbcp.o(.data) for time_slot_msg
    ethbcp.o(i.set_alias_alloc_done) refers to ethbcp.o(.data) for alias_alloc_done
    ethbcp.o(i.set_reflect_reply_unfinished) refers to ethbcp.o(.data) for tbc_dll_state
    ethernetif.o(i.ETH_GetCurrentTxBuffer) refers to stm32_eth.o(.data) for DMATxDescToSet
    ethernetif.o(i.ETH_RxPkt_ChainMode) refers to stm32_eth.o(.data) for DMARxDescToGet
    ethernetif.o(i.ETH_TxPkt_ChainMode) refers to stm32_eth.o(.data) for DMATxDescToSet
    ethernetif.o(i.ethernetif_init) refers to printfa.o(i.__0printf) for __2printf
    ethernetif.o(i.ethernetif_init) refers to mem.o(i.mem_alloc) for mem_alloc
    ethernetif.o(i.ethernetif_init) refers to ethernetif.o(i.low_level_init) for low_level_init
    ethernetif.o(i.ethernetif_init) refers to ethbcp.o(i.ethbcp_output) for ethbcp_output
    ethernetif.o(i.ethernetif_init) refers to ethernetif.o(i.low_level_output) for low_level_output
    ethernetif.o(i.ethernetif_input) refers to os_cpu_a.o(.text) for OS_CPU_SR_Save
    ethernetif.o(i.ethernetif_input) refers to ethernetif.o(i.low_level_input) for low_level_input
    ethernetif.o(i.ethernetif_input) refers to printfa.o(i.__0printf) for __2printf
    ethernetif.o(i.ethernetif_input) refers to pbuf.o(i.pbuf_free) for pbuf_free
    ethernetif.o(i.low_level_init) refers to os_cpu_a.o(.text) for OS_CPU_SR_Save
    ethernetif.o(i.low_level_init) refers to stm32_eth.o(i.ETH_DMATxDescChainInit) for ETH_DMATxDescChainInit
    ethernetif.o(i.low_level_init) refers to stm32_eth.o(i.ETH_DMARxDescChainInit) for ETH_DMARxDescChainInit
    ethernetif.o(i.low_level_init) refers to stm32_eth.o(i.ETH_DMARxDescReceiveITConfig) for ETH_DMARxDescReceiveITConfig
    ethernetif.o(i.low_level_init) refers to stm32_eth.o(i.ETH_Start) for ETH_Start
    ethernetif.o(i.low_level_init) refers to ethernetif.o(.data) for mac_address
    ethernetif.o(i.low_level_init) refers to ethernetif.o(.bss) for Tx_Buff
    ethernetif.o(i.low_level_input) refers to ethernetif.o(i.ETH_RxPkt_ChainMode) for ETH_RxPkt_ChainMode
    ethernetif.o(i.low_level_input) refers to pbuf.o(i.pbuf_alloc) for pbuf_alloc
    ethernetif.o(i.low_level_input) refers to memcpya.o(.text) for __aeabi_memcpy
    ethernetif.o(i.low_level_output) refers to os_cpu_a.o(.text) for OS_CPU_SR_Save
    ethernetif.o(i.low_level_output) refers to ethernetif.o(i.ETH_GetCurrentTxBuffer) for ETH_GetCurrentTxBuffer
    ethernetif.o(i.low_level_output) refers to memcpya.o(.text) for __aeabi_memcpy
    ethernetif.o(i.low_level_output) refers to ethernetif.o(i.ETH_TxPkt_ChainMode) for ETH_TxPkt_ChainMode
    ethernetif.o(i.set_mac_address) refers to stm32_eth.o(i.ETH_MACAddressConfig) for ETH_MACAddressConfig
    ethernetif.o(i.set_mac_address) refers to ethernetif.o(.data) for mac_address
    init.o(i.protocol_stack_init) refers to sys_arch.o(i.sys_init) for sys_init
    init.o(i.protocol_stack_init) refers to mem.o(i.mem_init) for mem_init
    init.o(i.protocol_stack_init) refers to memp.o(i.memp_init) for memp_init
    init.o(i.protocol_stack_init) refers to netif.o(i.netif_init) for netif_init
    init.o(i.protocol_stack_init) refers to ethbcp.o(i.TBC_DLL_init) for TBC_DLL_init
    init.o(i.protocol_stack_init) refers to timer.o(i.sys_timeouts_init) for sys_timeouts_init
    mem.o(i.mem_alloc) refers to sys_arch.o(i.sys_arch_sem_wait) for sys_arch_sem_wait
    mem.o(i.mem_alloc) refers to sys_arch.o(i.sys_sem_signal) for sys_sem_signal
    mem.o(i.mem_alloc) refers to mem.o(.data) for mem_sem
    mem.o(i.mem_free) refers to sys_arch.o(i.sys_arch_sem_wait) for sys_arch_sem_wait
    mem.o(i.mem_free) refers to mem.o(i.plug_holes) for plug_holes
    mem.o(i.mem_free) refers to sys_arch.o(i.sys_sem_signal) for sys_sem_signal
    mem.o(i.mem_free) refers to mem.o(.data) for ram
    mem.o(i.mem_init) refers to sys_arch.o(i.sys_sem_new) for sys_sem_new
    mem.o(i.mem_init) refers to mem.o(.bss) for RAM
    mem.o(i.mem_init) refers to mem.o(.data) for ram
    mem.o(i.mem_trim) refers to sys_arch.o(i.sys_arch_sem_wait) for sys_arch_sem_wait
    mem.o(i.mem_trim) refers to sys_arch.o(i.sys_sem_signal) for sys_sem_signal
    mem.o(i.mem_trim) refers to mem.o(.data) for ram
    mem.o(i.plug_holes) refers to mem.o(.data) for ram
    memp.o(i.memp_alloc) refers to os_cpu_a.o(.text) for OS_CPU_SR_Save
    memp.o(i.memp_alloc) refers to memp.o(.bss) for memp_tab
    memp.o(i.memp_free) refers to os_cpu_a.o(.text) for OS_CPU_SR_Save
    memp.o(i.memp_free) refers to memp.o(.bss) for memp_tab
    memp.o(i.memp_init) refers to memp.o(.bss) for memp_memory
    memp.o(i.memp_init) refers to memp.o(.constdata) for memp_sizes
    netbuf.o(i.netbuf_alloc) refers to pbuf.o(i.pbuf_free) for pbuf_free
    netbuf.o(i.netbuf_alloc) refers to pbuf.o(i.pbuf_alloc) for pbuf_alloc
    netbuf.o(i.netbuf_delete) refers to pbuf.o(i.pbuf_free) for pbuf_free
    netbuf.o(i.netbuf_delete) refers to memp.o(i.memp_free) for memp_free
    netbuf.o(i.netbuf_free) refers to pbuf.o(i.pbuf_free) for pbuf_free
    netbuf.o(i.netbuf_new) refers to memp.o(i.memp_alloc) for memp_alloc
    netbuf.o(i.netbuf_ref) refers to pbuf.o(i.pbuf_free) for pbuf_free
    netbuf.o(i.netbuf_ref) refers to pbuf.o(i.pbuf_alloc) for pbuf_alloc
    netif.o(i.netif_add) refers to printfa.o(i.__0printf) for __2printf
    netif.o(i.netif_add) refers to netif.o(.data) for netif_num
    netif.o(i.netif_find) refers to netif.o(.data) for netif_list
    netif.o(i.netif_remove) refers to netif.o(.data) for netif_list
    netif.o(i.netif_set_default) refers to netif.o(.data) for netif_default
    pbuf.o(i.pbuf_alloc) refers to memp.o(i.memp_alloc) for memp_alloc
    pbuf.o(i.pbuf_alloc) refers to printfa.o(i.__0printf) for __2printf
    pbuf.o(i.pbuf_alloc) refers to pbuf.o(i.pbuf_free) for pbuf_free
    pbuf.o(i.pbuf_alloc) refers to mem.o(i.mem_alloc) for mem_alloc
    pbuf.o(i.pbuf_chain) refers to pbuf.o(i.pbuf_cat) for pbuf_cat
    pbuf.o(i.pbuf_chain) refers to pbuf.o(i.pbuf_ref) for pbuf_ref
    pbuf.o(i.pbuf_coalesce) refers to pbuf.o(i.pbuf_alloc) for pbuf_alloc
    pbuf.o(i.pbuf_coalesce) refers to pbuf.o(i.pbuf_copy) for pbuf_copy
    pbuf.o(i.pbuf_coalesce) refers to printfa.o(i.__0printf) for __2printf
    pbuf.o(i.pbuf_coalesce) refers to pbuf.o(i.pbuf_free) for pbuf_free
    pbuf.o(i.pbuf_copy) refers to printfa.o(i.__0printf) for __2printf
    pbuf.o(i.pbuf_copy) refers to memcpya.o(.text) for __aeabi_memcpy
    pbuf.o(i.pbuf_copy_partical) refers to printfa.o(i.__0printf) for __2printf
    pbuf.o(i.pbuf_copy_partical) refers to memcpya.o(.text) for __aeabi_memcpy
    pbuf.o(i.pbuf_dechain) refers to pbuf.o(i.pbuf_free) for pbuf_free
    pbuf.o(i.pbuf_free) refers to os_cpu_a.o(.text) for OS_CPU_SR_Save
    pbuf.o(i.pbuf_free) refers to memp.o(i.memp_free) for memp_free
    pbuf.o(i.pbuf_free) refers to mem.o(i.mem_free) for mem_free
    pbuf.o(i.pbuf_realloc) refers to mem.o(i.mem_trim) for mem_trim
    pbuf.o(i.pbuf_realloc) refers to pbuf.o(i.pbuf_free) for pbuf_free
    pbuf.o(i.pbuf_ref) refers to os_cpu_a.o(.text) for OS_CPU_SR_Save
    pbuf.o(i.pbuf_take) refers to printfa.o(i.__0printf) for __2printf
    pbuf.o(i.pbuf_take) refers to memcpya.o(.text) for __aeabi_memcpy
    ssnp.o(i.ssnp_apimsg) refers to sys_arch.o(i.sys_mbox_post) for sys_mbox_post
    ssnp.o(i.ssnp_apimsg) refers to sys_arch.o(i.sys_arch_sem_wait) for sys_arch_sem_wait
    ssnp.o(i.ssnp_apimsg) refers to ssnp.o(.data) for mbox
    ssnp.o(i.ssnp_apimsg_alias_list) refers to sys_arch.o(i.sys_mbox_post) for sys_mbox_post
    ssnp.o(i.ssnp_apimsg_alias_list) refers to sys_arch.o(i.sys_arch_sem_wait) for sys_arch_sem_wait
    ssnp.o(i.ssnp_apimsg_alias_list) refers to ssnp.o(.data) for mbox
    ssnp.o(i.ssnp_init) refers to init.o(i.protocol_stack_init) for protocol_stack_init
    ssnp.o(i.ssnp_init) refers to sys_arch.o(i.sys_mbox_new) for sys_mbox_new
    ssnp.o(i.ssnp_init) refers to sys_arch.o(i.sys_thread_new) for sys_thread_new
    ssnp.o(i.ssnp_init) refers to ssnp.o(.data) for ssnp_init_done
    ssnp.o(i.ssnp_init) refers to ssnp.o(i.ssnp_thread) for ssnp_thread
    ssnp.o(i.ssnp_input) refers to memp.o(i.memp_alloc) for memp_alloc
    ssnp.o(i.ssnp_input) refers to printfa.o(i.__0printf) for __2printf
    ssnp.o(i.ssnp_input) refers to sys_arch.o(i.sys_mbox_trypost) for sys_mbox_trypost
    ssnp.o(i.ssnp_input) refers to memp.o(i.memp_free) for memp_free
    ssnp.o(i.ssnp_input) refers to ssnp.o(.data) for mbox
    ssnp.o(i.ssnp_thread) refers to timer.o(i.sys_timeouts_mbox_fetch) for sys_timeouts_mbox_fetch
    ssnp.o(i.ssnp_thread) refers to ethbcp.o(i.ethernet_input) for ethernet_input
    ssnp.o(i.ssnp_thread) refers to memp.o(i.memp_free) for memp_free
    ssnp.o(i.ssnp_thread) refers to timer.o(i.sys_timeout) for sys_timeout
    ssnp.o(i.ssnp_thread) refers to timer.o(i.sys_untimeout) for sys_untimeout
    ssnp.o(i.ssnp_thread) refers to ssnp.o(.data) for ssnp_init_done
    ssnp.o(i.ssnp_timeout) refers to memp.o(i.memp_alloc) for memp_alloc
    ssnp.o(i.ssnp_timeout) refers to sys_arch.o(i.sys_mbox_post) for sys_mbox_post
    ssnp.o(i.ssnp_timeout) refers to ssnp.o(.data) for mbox
    ssnp.o(i.ssnp_untimeout) refers to memp.o(i.memp_alloc) for memp_alloc
    ssnp.o(i.ssnp_untimeout) refers to sys_arch.o(i.sys_mbox_post) for sys_mbox_post
    ssnp.o(i.ssnp_untimeout) refers to ssnp.o(.data) for mbox
    sys_arch.o(i.sys_arch_mbox_fetch) refers to os_time.o(i.OSTimeGet) for OSTimeGet
    sys_arch.o(i.sys_arch_mbox_fetch) refers to os_q.o(i.OSQPend) for OSQPend
    sys_arch.o(i.sys_arch_mbox_fetch) refers to sys_arch.o(.constdata) for pvNullPointer
    sys_arch.o(i.sys_arch_mbox_fetch_unblock) refers to os_q.o(i.OSQAccept) for OSQAccept
    sys_arch.o(i.sys_arch_sem_wait) refers to os_time.o(i.OSTimeGet) for OSTimeGet
    sys_arch.o(i.sys_arch_sem_wait) refers to os_sem.o(i.OSSemPend) for OSSemPend
    sys_arch.o(i.sys_init) refers to os_mem.o(i.OSMemCreate) for OSMemCreate
    sys_arch.o(i.sys_init) refers to sys_arch.o(.bss) for pcQueueMemoryPool
    sys_arch.o(i.sys_init) refers to sys_arch.o(.data) for pQueueMem
    sys_arch.o(i.sys_mbox_free) refers to printfa.o(i.__0printf) for __2printf
    sys_arch.o(i.sys_mbox_free) refers to os_q.o(i.OSQFlush) for OSQFlush
    sys_arch.o(i.sys_mbox_free) refers to os_q.o(i.OSQDel) for OSQDel
    sys_arch.o(i.sys_mbox_free) refers to os_mem.o(i.OSMemPut) for OSMemPut
    sys_arch.o(i.sys_mbox_free) refers to sys_arch.o(.data) for pQueueMem
    sys_arch.o(i.sys_mbox_new) refers to os_mem.o(i.OSMemGet) for OSMemGet
    sys_arch.o(i.sys_mbox_new) refers to os_q.o(i.OSQCreate) for OSQCreate
    sys_arch.o(i.sys_mbox_new) refers to printfa.o(i.__0printf) for __2printf
    sys_arch.o(i.sys_mbox_new) refers to os_mem.o(i.OSMemPut) for OSMemPut
    sys_arch.o(i.sys_mbox_new) refers to sys_arch.o(.data) for pQueueMem
    sys_arch.o(i.sys_mbox_post) refers to os_time.o(i.OSTimeDly) for OSTimeDly
    sys_arch.o(i.sys_mbox_post) refers to os_q.o(i.OSQPost) for OSQPost
    sys_arch.o(i.sys_mbox_post) refers to sys_arch.o(.constdata) for pvNullPointer
    sys_arch.o(i.sys_mbox_trypost) refers to os_q.o(i.OSQPost) for OSQPost
    sys_arch.o(i.sys_mbox_trypost) refers to sys_arch.o(.constdata) for pvNullPointer
    sys_arch.o(i.sys_sem_free) refers to os_sem.o(i.OSSemDel) for OSSemDel
    sys_arch.o(i.sys_sem_new) refers to os_sem.o(i.OSSemCreate) for OSSemCreate
    sys_arch.o(i.sys_sem_signal) refers to os_sem.o(i.OSSemPost) for OSSemPost
    sys_arch.o(i.sys_thread_new) refers to os_task.o(i.OSTaskCreateExt) for OSTaskCreateExt
    sys_arch.o(i.sys_thread_new) refers to os_task.o(i.OSTaskNameSet) for OSTaskNameSet
    sys_arch.o(i.sys_thread_new) refers to sys_arch.o(.bss) for SSNP_TASK_STK
    sys_arch.o(i.sys_time_get) refers to os_time.o(i.OSTimeGet) for OSTimeGet
    tbim.o(i.TBIM_init) refers to tbimdriver.o(i.findTdcn) for findTdcn
    tbim.o(i.TBIM_init) refers to tbimdriver.o(i.getTedsFromTdcn) for getTedsFromTdcn
    tbim.o(i.TBIM_init) refers to tbim.o(i.insertChannel) for insertChannel
    tbim.o(i.TBIM_init) refers to api_lib.o(i.netconn_new) for netconn_new
    tbim.o(i.TBIM_init) refers to printfa.o(i.__0printf) for __2printf
    tbim.o(i.TBIM_init) refers to api_lib.o(i.netconn_bind) for netconn_bind
    tbim.o(i.TBIM_init) refers to api_lib.o(i.netconn_connect) for netconn_connect
    tbim.o(i.TBIM_init) refers to tbim.o(.bss) for tbim
    tbim.o(i.TBIM_recv_cmd_and_execute) refers to api_lib.o(i.netconn_recv_unblock) for netconn_recv_unblock
    tbim.o(i.TBIM_recv_cmd_and_execute) refers to netbuf.o(i.netbuf_data) for netbuf_data
    tbim.o(i.TBIM_recv_cmd_and_execute) refers to printfa.o(i.__0printf) for __2printf
    tbim.o(i.TBIM_recv_cmd_and_execute) refers to tbim.o(i.execute) for execute
    tbim.o(i.TBIM_recv_cmd_and_execute) refers to netbuf.o(i.netbuf_delete) for netbuf_delete
    tbim.o(i.TBIM_recv_cmd_and_execute) refers to tbim.o(.bss) for tbim
    tbim.o(i.TBIM_recv_trigger_and_execute) refers to api_lib.o(i.netconn_recvtrigger_unblock) for netconn_recvtrigger_unblock
    tbim.o(i.TBIM_recv_trigger_and_execute) refers to tbim.o(i.trigger_do) for trigger_do
    tbim.o(i.TBIM_recv_trigger_and_execute) refers to tbim.o(.bss) for tbim
    tbim.o(i.TBIM_send_cmd_reply_msg) refers to netbuf.o(i.netbuf_ref) for netbuf_ref
    tbim.o(i.TBIM_send_cmd_reply_msg) refers to api_lib.o(i.netconn_sendto) for netconn_sendto
    tbim.o(i.TBIM_send_cmd_reply_msg) refers to netbuf.o(i.netbuf_free) for netbuf_free
    tbim.o(i.TBIM_send_cmd_reply_msg) refers to tbim.o(.bss) for tbim
    tbim.o(i.TBIM_send_streaming_data) refers to netbuf.o(i.netbuf_ref) for netbuf_ref
    tbim.o(i.TBIM_send_streaming_data) refers to sdp.o(i.sdp_sendto) for sdp_sendto
    tbim.o(i.TBIM_send_streaming_data) refers to printfa.o(i.__0printf) for __2printf
    tbim.o(i.TBIM_send_streaming_data) refers to netbuf.o(i.netbuf_free) for netbuf_free
    tbim.o(i.TBIM_send_streaming_data) refers to tbim.o(.bss) for tbim
    tbim.o(i.execute) refers to tbim.o(i.invalidCommand) for invalidCommand
    tbim.o(i.execute) refers to tbim.o(i.queryTEDS) for queryTEDS
    tbim.o(i.execute) refers to tbim.o(i.readTEDS) for readTEDS
    tbim.o(i.execute) refers to tbim.o(i.writeTEDS) for writeTEDS
    tbim.o(i.execute) refers to tbim.o(i.updateTEDS) for updateTEDS
    tbim.o(i.execute) refers to tbim.o(i.setOPmode) for setOPmode
    tbim.o(i.execute) refers to tbim.o(i.readOPmode) for readOPmode
    tbim.o(i.execute) refers to tbim.o(i.rundiagnostics) for rundiagnostics
    tbim.o(i.execute) refers to tbim.o(.data) for initialization
    tbim.o(i.get_TBIM_Chn_num) refers to tbim.o(.bss) for tbim
    tbim.o(i.get_TBIM_init_state) refers to tbim.o(.bss) for tbim
    tbim.o(i.get_asy_flag) refers to teds.o(i.phy_teds_asy_flag) for phy_teds_asy_flag
    tbim.o(i.get_payload_encoding) refers to teds.o(i.phy_teds_payload_encoding) for phy_teds_payload_encoding
    tbim.o(i.get_reflect_delay) refers to teds.o(i.phy_teds_reflect_delay) for phy_teds_reflect_delay
    tbim.o(i.get_reflect_delay_uncertainty) refers to teds.o(i.phy_teds_reflect_delay_uncertainty) for phy_teds_reflect_delay_uncertainty
    tbim.o(i.get_sensor_data) refers to tbimdriver.o(i.getDataFromChn) for getDataFromChn
    tbim.o(i.get_sensor_data) refers to tbim.o(.bss) for tbim
    tbim.o(i.get_sensor_period) refers to tbim.o(.bss) for tbim
    tbim.o(i.get_start_delay) refers to teds.o(i.phy_teds_start_delay) for phy_teds_start_delay
    tbim.o(i.get_uuid) refers to tbim.o(.data) for uid
    tbim.o(i.insertChannel) refers to tbim.o(.bss) for tbim
    tbim.o(i.is_uuid_eq) refers to tbim.o(.data) for uid
    tbim.o(i.max_period) refers to tbim.o(.bss) for tbim
    tbim.o(i.queryTEDS) refers to printfa.o(i.__0printf) for __2printf
    tbim.o(i.queryTEDS) refers to tbim.o(i.TBIM_send_cmd_reply_msg) for TBIM_send_cmd_reply_msg
    tbim.o(i.readTBIMstruct) refers to printfa.o(i.__0printf) for __2printf
    tbim.o(i.readTBIMstruct) refers to mem.o(i.mem_alloc) for mem_alloc
    tbim.o(i.readTBIMstruct) refers to tbim.o(i.TBIM_send_cmd_reply_msg) for TBIM_send_cmd_reply_msg
    tbim.o(i.readTBIMstruct) refers to mem.o(i.mem_free) for mem_free
    tbim.o(i.readTBIMstruct) refers to tbim.o(.bss) for tbim
    tbim.o(i.readTEDS) refers to printfa.o(i.__0printf) for __2printf
    tbim.o(i.readTEDS) refers to tbim.o(i.TBIM_send_cmd_reply_msg) for TBIM_send_cmd_reply_msg
    tbim.o(i.readTEDS) refers to tbim.o(.bss) for tbim
    tbim.o(i.trigger) refers to printfa.o(i.__0printf) for __2printf
    tbim.o(i.trigger) refers to api_lib.o(i.netconn_sendtrigger) for netconn_sendtrigger
    tbim.o(.data) refers to tbim.o(i.sleep) for sleep
    tbim.o(.data) refers to tbim.o(i.wakeup) for wakeup
    tbim.o(.data) refers to tbim.o(i.setTCdataRepCount) for setTCdataRepCount
    tbim.o(.data) refers to tbim.o(i.readTCdataRepCount) for readTCdataRepCount
    tbim.o(.data) refers to tbim.o(i.setTCpretriggerCount) for setTCpretriggerCount
    tbim.o(.data) refers to tbim.o(i.readTCpretriggerCount) for readTCpretriggerCount
    tbim.o(.data) refers to tbim.o(i.calibrateTC) for calibrateTC
    tbim.o(.data) refers to tbim.o(i.zeroTC) for zeroTC
    tbim.o(.data) refers to tbim.o(i.enableCorrections) for enableCorrections
    tbim.o(.data) refers to tbim.o(i.disableCorrections) for disableCorrections
    tbim.o(.data) refers to tbim.o(i.enableTC) for enableTC
    tbim.o(.data) refers to tbim.o(i.addressGroupDef) for addressGroupDef
    tbim.o(.data) refers to tbim.o(i.readAddressGroupAssignment) for readAddressGroupAssignment
    tbim.o(.data) refers to tbim.o(i.eraseOperationSetup) for eraseOperationSetup
    tbim.o(.data) refers to tbim.o(i.storeOperationSetup) for storeOperationSetup
    tbim.o(.data) refers to tbim.o(i.readTBIMstruct) for readTBIMstruct
    tbim.o(.data) refers to tbim.o(i.enableTCtrigger) for enableTCtrigger
    tbim.o(.data) refers to tbim.o(i.disableTCtrigger) for disableTCtrigger
    tbim.o(.data) refers to tbim.o(i.writeServiceReqMask) for writeServiceReqMask
    tbim.o(.data) refers to tbim.o(i.readServiceReqMask) for readServiceReqMask
    tbim.o(.data) refers to tbim.o(i.readStatus) for readStatus
    tbim.o(.data) refers to tbim.o(i.queryDataBlock) for queryDataBlock
    tbim.o(.data) refers to tbim.o(i.readTCdata) for readTCdata
    tbim.o(.data) refers to tbim.o(i.readTCdataBlock) for readTCdataBlock
    tbim.o(.data) refers to tbim.o(i.writeTCdata) for writeTCdata
    tbim.o(.data) refers to tbim.o(i.writeTCdataBlock) for writeTCdataBlock
    tbim.o(.data) refers to tbim.o(i.readTBIMversion) for readTBIMversion
    tbim.o(.data) refers to tbim.o(i.reset) for reset
    tbim.o(.data) refers to tbim.o(i.halt) for halt
    teds.o(i.phy_teds_asy_flag) refers to teds.o(.data) for phy_teds
    teds.o(i.phy_teds_payload_encoding) refers to teds.o(.data) for phy_teds
    teds.o(i.phy_teds_reflect_delay) refers to teds.o(.data) for phy_teds
    teds.o(i.phy_teds_reflect_delay_uncertainty) refers to teds.o(.data) for phy_teds
    teds.o(i.phy_teds_start_delay) refers to teds.o(.data) for phy_teds
    timer.o(i.alias_alloc_finish) refers to ethbcp.o(i.set_alias_alloc_done) for set_alias_alloc_done
    timer.o(i.alias_check_timer) refers to alias_state.o(i.clear_unresponsive_alias) for clear_unresponsive_alias
    timer.o(i.alias_check_timer) refers to timer.o(i.sys_timeout) for sys_timeout
    timer.o(i.alias_check_timer) refers to alias_state.o(.data) for as_list
    timer.o(i.discovery_timer) refers to ethbcp.o(i.InitiateDiscovery) for InitiateDiscovery
    timer.o(i.discovery_timer) refers to timer.o(i.sys_timeout) for sys_timeout
    timer.o(i.discovery_timer) refers to ethbcp.o(i.get_alias_alloc_state) for get_alias_alloc_state
    timer.o(i.sys_timeout) refers to memp.o(i.memp_alloc) for memp_alloc
    timer.o(i.sys_timeout) refers to timer.o(.data) for next_timeout
    timer.o(i.sys_timeouts_init) refers to timer.o(i.sys_timeout) for sys_timeout
    timer.o(i.sys_timeouts_init) refers to timer.o(i.alias_alloc_finish) for alias_alloc_finish
    timer.o(i.sys_timeouts_mbox_fetch) refers to sys_arch.o(i.sys_arch_mbox_fetch) for sys_arch_mbox_fetch
    timer.o(i.sys_timeouts_mbox_fetch) refers to memp.o(i.memp_free) for memp_free
    timer.o(i.sys_timeouts_mbox_fetch) refers to timer.o(.data) for next_timeout
    timer.o(i.sys_untimeout) refers to memp.o(i.memp_free) for memp_free
    timer.o(i.sys_untimeout) refers to timer.o(.data) for next_timeout
    tp.o(i.ip_route) refers to netif.o(.data) for netif_list
    tp.o(i.tp_bind) refers to tp.o(.data) for tp_pcbs
    tp.o(i.tp_connect) refers to tp.o(.data) for tp_pcbs
    tp.o(i.tp_input) refers to printfa.o(i.__0printf) for __2printf
    tp.o(i.tp_input) refers to pbuf.o(i.pbuf_free) for pbuf_free
    tp.o(i.tp_input) refers to inet_chksum.o(i.inet_chksum) for inet_chksum
    tp.o(i.tp_input) refers to tp.o(i.isbroadcast) for isbroadcast
    tp.o(i.tp_input) refers to tp.o(.data) for tp_pcbs
    tp.o(i.tp_new) refers to memp.o(i.memp_alloc) for memp_alloc
    tp.o(i.tp_new) refers to memseta.o(.text) for __aeabi_memclr4
    tp.o(i.tp_remove) refers to memp.o(i.memp_free) for memp_free
    tp.o(i.tp_remove) refers to tp.o(.data) for tp_pcbs
    tp.o(i.tp_sendto) refers to tp.o(i.ip_route) for ip_route
    tp.o(i.tp_sendto) refers to tp.o(i.tp_sendto_if) for tp_sendto_if
    tp.o(i.tp_sendto_if) refers to memp.o(i.memp_alloc) for memp_alloc
    tp.o(i.tp_sendto_if) refers to printfa.o(i.__0printf) for __2printf
    tp.o(i.tp_sendto_if) refers to memp.o(i.memp_free) for memp_free
    ssnp_for_app.o(i.ETH_IRQHandler) refers to os_cpu_a.o(.text) for OS_CPU_SR_Save
    ssnp_for_app.o(i.ETH_IRQHandler) refers to ethernetif.o(i.ethernetif_input) for ethernetif_input
    ssnp_for_app.o(i.ETH_IRQHandler) refers to stm32_eth.o(i.ETH_GetRxPktSize) for ETH_GetRxPktSize
    ssnp_for_app.o(i.ETH_IRQHandler) refers to stm32_eth.o(i.ETH_DMAClearITPendingBit) for ETH_DMAClearITPendingBit
    ssnp_for_app.o(i.ETH_IRQHandler) refers to os_core.o(i.OSIntExit) for OSIntExit
    ssnp_for_app.o(i.ETH_IRQHandler) refers to os_core.o(.data) for OSIntNesting
    ssnp_for_app.o(i.ETH_IRQHandler) refers to ssnp_for_app.o(.bss) for netif
    ssnp_for_app.o(i.Ethernet_Configuration) refers to stm32f10x_gpio.o(i.GPIO_ETH_MediaInterfaceConfig) for GPIO_ETH_MediaInterfaceConfig
    ssnp_for_app.o(i.Ethernet_Configuration) refers to stm32f10x_rcc.o(i.RCC_PLL3Config) for RCC_PLL3Config
    ssnp_for_app.o(i.Ethernet_Configuration) refers to stm32f10x_rcc.o(i.RCC_PLL3Cmd) for RCC_PLL3Cmd
    ssnp_for_app.o(i.Ethernet_Configuration) refers to stm32f10x_rcc.o(i.RCC_GetFlagStatus) for RCC_GetFlagStatus
    ssnp_for_app.o(i.Ethernet_Configuration) refers to stm32f10x_rcc.o(i.RCC_MCOConfig) for RCC_MCOConfig
    ssnp_for_app.o(i.Ethernet_Configuration) refers to stm32_eth.o(i.ETH_DeInit) for ETH_DeInit
    ssnp_for_app.o(i.Ethernet_Configuration) refers to stm32_eth.o(i.ETH_SoftwareReset) for ETH_SoftwareReset
    ssnp_for_app.o(i.Ethernet_Configuration) refers to stm32_eth.o(i.ETH_GetSoftwareResetStatus) for ETH_GetSoftwareResetStatus
    ssnp_for_app.o(i.Ethernet_Configuration) refers to stm32_eth.o(i.ETH_StructInit) for ETH_StructInit
    ssnp_for_app.o(i.Ethernet_Configuration) refers to stm32_eth.o(i.ETH_Init) for ETH_Init
    ssnp_for_app.o(i.Ethernet_Configuration) refers to stm32_eth.o(i.ETH_DMAITConfig) for ETH_DMAITConfig
    ssnp_for_app.o(i.NVIC_Configuration) refers to misc.o(i.NVIC_PriorityGroupConfig) for NVIC_PriorityGroupConfig
    ssnp_for_app.o(i.NVIC_Configuration) refers to misc.o(i.NVIC_Init) for NVIC_Init
    ssnp_for_app.o(i.NVIC_Configuration_USART2) refers to misc.o(i.NVIC_PriorityGroupConfig) for NVIC_PriorityGroupConfig
    ssnp_for_app.o(i.NVIC_Configuration_USART2) refers to misc.o(i.NVIC_Init) for NVIC_Init
    ssnp_for_app.o(i.USART2_IRQHandler) refers to stm32f10x_usart.o(i.USART_GetITStatus) for USART_GetITStatus
    ssnp_for_app.o(i.USART2_IRQHandler) refers to stm32f10x_usart.o(i.USART_ClearITPendingBit) for USART_ClearITPendingBit
    ssnp_for_app.o(i.USART2_IRQHandler) refers to stm32f10x_usart.o(i.USART_ReceiveData) for USART_ReceiveData
    ssnp_for_app.o(i.USART2_IRQHandler) refers to printfa.o(i.__0printf) for __2printf
    ssnp_for_app.o(i.USART2_IRQHandler) refers to ssnp_for_app.o(i.writeMetaTeds) for writeMetaTeds
    ssnp_for_app.o(i.USART2_IRQHandler) refers to stm32f10x_usart.o(i.USART_GetFlagStatus) for USART_GetFlagStatus
    ssnp_for_app.o(i.USART2_IRQHandler) refers to ssnp_for_app.o(.data) for recv_data
    ssnp_for_app.o(i.USART2_IRQHandler) refers to ssnp_for_app.o(.bss) for recv_buf
    ssnp_for_app.o(i.USART_Configuration) refers to stm32f10x_rcc.o(i.RCC_APB2PeriphClockCmd) for RCC_APB2PeriphClockCmd
    ssnp_for_app.o(i.USART_Configuration) refers to stm32f10x_rcc.o(i.RCC_APB1PeriphClockCmd) for RCC_APB1PeriphClockCmd
    ssnp_for_app.o(i.USART_Configuration) refers to stm32f10x_gpio.o(i.GPIO_PinRemapConfig) for GPIO_PinRemapConfig
    ssnp_for_app.o(i.USART_Configuration) refers to stm32f10x_gpio.o(i.GPIO_Init) for GPIO_Init
    ssnp_for_app.o(i.USART_Configuration) refers to stm32f10x_usart.o(i.USART_Init) for USART_Init
    ssnp_for_app.o(i.USART_Configuration) refers to stm32f10x_usart.o(i.USART_ClearFlag) for USART_ClearFlag
    ssnp_for_app.o(i.USART_Configuration) refers to stm32f10x_usart.o(i.USART_ITConfig) for USART_ITConfig
    ssnp_for_app.o(i.USART_Configuration) refers to stm32f10x_usart.o(i.USART_Cmd) for USART_Cmd
    ssnp_for_app.o(i.ethernet_initialize) refers to stm32f10x_rcc.o(i.RCC_AHBPeriphClockCmd) for RCC_AHBPeriphClockCmd
    ssnp_for_app.o(i.ethernet_initialize) refers to stm32f10x_rcc.o(i.RCC_APB2PeriphClockCmd) for RCC_APB2PeriphClockCmd
    ssnp_for_app.o(i.ethernet_initialize) refers to stm32f10x_gpio.o(i.GPIO_Init) for GPIO_Init
    ssnp_for_app.o(i.ethernet_initialize) refers to stm32f10x_gpio.o(i.GPIO_PinRemapConfig) for GPIO_PinRemapConfig
    ssnp_for_app.o(i.ethernet_initialize) refers to ssnp_for_app.o(i.Ethernet_Configuration) for Ethernet_Configuration
    ssnp_for_app.o(i.ethernet_initialize) refers to ssnp_for_app.o(i.NVIC_Configuration) for NVIC_Configuration
    ssnp_for_app.o(i.hardware_init) refers to ssnp_for_app.o(i.ethernet_initialize) for ethernet_initialize
    ssnp_for_app.o(i.protocol_init) refers to sys_arch.o(i.sys_sem_new) for sys_sem_new
    ssnp_for_app.o(i.protocol_init) refers to ssnp.o(i.ssnp_init) for ssnp_init
    ssnp_for_app.o(i.protocol_init) refers to sys_arch.o(i.sys_arch_sem_wait) for sys_arch_sem_wait
    ssnp_for_app.o(i.protocol_init) refers to sys_arch.o(i.sys_sem_free) for sys_sem_free
    ssnp_for_app.o(i.protocol_init) refers to ethernetif.o(i.set_mac_address) for set_mac_address
    ssnp_for_app.o(i.protocol_init) refers to netif.o(i.netif_add) for netif_add
    ssnp_for_app.o(i.protocol_init) refers to netif.o(i.netif_set_default) for netif_set_default
    ssnp_for_app.o(i.protocol_init) refers to ssnp_for_app.o(i.USART_Configuration) for USART_Configuration
    ssnp_for_app.o(i.protocol_init) refers to ssnp_for_app.o(i.NVIC_Configuration_USART2) for NVIC_Configuration_USART2
    ssnp_for_app.o(i.protocol_init) refers to ssnp_for_app.o(i.ssnp_init_done) for ssnp_init_done
    ssnp_for_app.o(i.protocol_init) refers to ssnp.o(i.ssnp_input) for ssnp_input
    ssnp_for_app.o(i.protocol_init) refers to ethernetif.o(i.ethernetif_init) for ethernetif_init
    ssnp_for_app.o(i.protocol_init) refers to ssnp_for_app.o(.bss) for netif
    ssnp_for_app.o(i.send_discovery_msg) refers to ethbcp.o(i.InitiateDiscovery) for InitiateDiscovery
    ssnp_for_app.o(i.send_discovery_msg) refers to ssnp_for_app.o(.bss) for netif
    ssnp_for_app.o(i.set_discovery_timer) refers to ssnp.o(i.ssnp_timeout) for ssnp_timeout
    ssnp_for_app.o(i.set_discovery_timer) refers to ssnp_for_app.o(.bss) for netif
    ssnp_for_app.o(i.set_discovery_timer) refers to timer.o(i.discovery_timer) for discovery_timer
    ssnp_for_app.o(i.ssnp_init_done) refers to sys_arch.o(i.sys_sem_signal) for sys_sem_signal
    ssnp_for_app.o(i.tbc_send_begin_of_epoch_msg) refers to ethbcp.o(i.send_begin_of_epoch_msg) for send_begin_of_epoch_msg
    ssnp_for_app.o(i.tbc_send_begin_of_epoch_msg) refers to ssnp_for_app.o(.bss) for netif
    ssnp_for_app.o(i.tbc_send_define_epoch_msg) refers to ethbcp.o(i.send_define_epoch_msg) for send_define_epoch_msg
    ssnp_for_app.o(i.tbc_send_define_epoch_msg) refers to ssnp_for_app.o(.bss) for netif
    ssnp_for_app.o(i.tbc_send_reflect_msg) refers to ethbcp.o(i.send_reflect_msg) for send_reflect_msg
    ssnp_for_app.o(i.tbc_send_reflect_msg) refers to ssnp_for_app.o(.bss) for netif
    ssnp_for_app.o(i.tbc_send_timeslot_msg) refers to ethbcp.o(i.send_assign_time_slot_msg) for send_assign_time_slot_msg
    ssnp_for_app.o(i.tbc_send_timeslot_msg) refers to ssnp_for_app.o(.bss) for netif
    ssnp_for_app.o(i.writeMetaTeds) refers to printfa.o(i.__0printf) for __2printf
    ssnp_for_app.o(i.writeMetaTeds) refers to i2c_fram.o(i.I2C_BufferWrite) for I2C_BufferWrite
    ssnp_for_app.o(i.writeMetaTeds) refers to i2c_fram.o(i.I2C_FRAM_BufferRead) for I2C_FRAM_BufferRead
    alias_map.o(i.alloc_alias_map) refers to alias_map.o(i.test) for test
    alias_map.o(i.alloc_alias_map) refers to alias_map.o(.data) for first_free
    alias_map.o(i.del_alias_map) refers to alias_map.o(.data) for first_free
    alias_map.o(i.test) refers to alias_map.o(.data) for alias_map
    alias_state.o(i.add_alias_pending) refers to mem.o(i.mem_alloc) for mem_alloc
    alias_state.o(i.add_alias_pending) refers to sys_arch.o(i.sys_time_get) for sys_time_get
    alias_state.o(i.add_alias_pending) refers to alias_state.o(i.copy_uuid) for copy_uuid
    alias_state.o(i.add_alias_pending) refers to timer.o(i.sys_timeout) for sys_timeout
    alias_state.o(i.add_alias_pending) refers to alias_state.o(.data) for as_list
    alias_state.o(i.add_alias_pending) refers to timer.o(i.alias_check_timer) for alias_check_timer
    alias_state.o(i.alias_done) refers to alias_state.o(.data) for as_list
    alias_state.o(i.clear_unresponsive_alias) refers to sys_arch.o(i.sys_time_get) for sys_time_get
    alias_state.o(i.clear_unresponsive_alias) refers to alias_state.o(i.delete_alias) for delete_alias
    alias_state.o(i.clear_unresponsive_alias) refers to alias_map.o(i.del_alias_map) for del_alias_map
    alias_state.o(i.clear_unresponsive_alias) refers to alias_state.o(.data) for as_list
    alias_state.o(i.delete_alias) refers to mem.o(i.mem_free) for mem_free
    alias_state.o(i.delete_alias) refers to alias_state.o(.data) for as_list
    alias_state.o(i.find) refers to alias_state.o(.data) for as_list
    alias_state.o(i.get_alias_done_list) refers to alias_state.o(.data) for done_list
    alias_state.o(i.is_exist_in_pending_list) refers to alias_state.o(i.find) for find
    tbc.o(i.Delay) refers to os_time.o(i.OSTimeDly) for OSTimeDly
    tbc.o(i.TBC_init) refers to tbc.o(.bss) for tbc
    tbc.o(i.TBC_send_cmd) refers to tbc.o(i.find_tbim) for find_tbim
    tbc.o(i.TBC_send_cmd) refers to tbc.o(i.TBC_send_cmd_to_tbim) for TBC_send_cmd_to_tbim
    tbc.o(i.TBC_send_cmd_to_tbim) refers to tbc.o(i.send_cmd_to_tbim) for send_cmd_to_tbim
    tbc.o(i.TBC_send_noArguCmd_to_tbim) refers to tbc.o(i.send_noArguCmd_to_tbim) for send_noArguCmd_to_tbim
    tbc.o(i.TBC_send_noArgucmd) refers to tbc.o(i.find_tbim) for find_tbim
    tbc.o(i.TBC_send_noArgucmd) refers to tbc.o(i.TBC_send_noArguCmd_to_tbim) for TBC_send_noArguCmd_to_tbim
    tbc.o(i.TBC_send_trigger) refers to tbc.o(i.find_tbim) for find_tbim
    tbc.o(i.TBC_send_trigger) refers to tbc.o(i.TBC_send_trigger_to_tbim) for TBC_send_trigger_to_tbim
    tbc.o(i.TBC_send_trigger_to_tbim) refers to api_lib.o(i.netconn_sendtrigger) for netconn_sendtrigger
    tbc.o(i.TBC_send_upcomputer_cmd) refers to tbc.o(i.TBC_send_noArgucmd) for TBC_send_noArgucmd
    tbc.o(i.TBIM_recongnition) refers to tbc.o(i.create_TBIM) for create_TBIM
    tbc.o(i.TBIM_recongnition) refers to mem.o(i.mem_free) for mem_free
    tbc.o(i.create_TBIM) refers to printfa.o(i.__0printf) for __2printf
    tbc.o(i.create_TBIM) refers to api_lib.o(i.netconn_new) for netconn_new
    tbc.o(i.create_TBIM) refers to api_lib.o(i.set_connection_recvmbox) for set_connection_recvmbox
    tbc.o(i.create_TBIM) refers to api_lib.o(i.netconn_bind) for netconn_bind
    tbc.o(i.create_TBIM) refers to api_lib.o(i.netconn_connect) for netconn_connect
    tbc.o(i.create_TBIM) refers to tbc.o(i.get_TBIM_struct) for get_TBIM_struct
    tbc.o(i.create_TBIM) refers to tbc.o(i.get_TBIM_meta_TEDS) for get_TBIM_meta_TEDS
    tbc.o(i.create_TBIM) refers to tbc.o(i.get_TBIM_tdcn_TEDS) for get_TBIM_tdcn_TEDS
    tbc.o(i.create_TBIM) refers to tbc.o(.bss) for tbc
    tbc.o(i.find_tbim) refers to tbc.o(.bss) for tbc
    tbc.o(i.get_TBIM_meta_TEDS) refers to tbc.o(i.TBC_send_noArguCmd_to_tbim) for TBC_send_noArguCmd_to_tbim
    tbc.o(i.get_TBIM_meta_TEDS) refers to api_lib.o(i.netconn_recv) for netconn_recv
    tbc.o(i.get_TBIM_meta_TEDS) refers to netbuf.o(i.netbuf_delete) for netbuf_delete
    tbc.o(i.get_TBIM_meta_TEDS) refers to tbc.o(i.Delay) for Delay
    tbc.o(i.get_TBIM_meta_TEDS) refers to tbc.o(i.TBC_send_cmd_to_tbim) for TBC_send_cmd_to_tbim
    tbc.o(i.get_TBIM_struct) refers to tbc.o(i.TBC_send_noArguCmd_to_tbim) for TBC_send_noArguCmd_to_tbim
    tbc.o(i.get_TBIM_struct) refers to printfa.o(i.__0printf) for __2printf
    tbc.o(i.get_TBIM_struct) refers to api_lib.o(i.netconn_recv) for netconn_recv
    tbc.o(i.get_TBIM_struct) refers to netbuf.o(i.netbuf_delete) for netbuf_delete
    tbc.o(i.get_TBIM_struct) refers to tbc.o(i.Delay) for Delay
    tbc.o(i.get_TBIM_tdcn_TEDS) refers to tbc.o(i.TBC_send_noArguCmd_to_tbim) for TBC_send_noArguCmd_to_tbim
    tbc.o(i.get_TBIM_tdcn_TEDS) refers to api_lib.o(i.netconn_recv) for netconn_recv
    tbc.o(i.get_TBIM_tdcn_TEDS) refers to netbuf.o(i.netbuf_delete) for netbuf_delete
    tbc.o(i.get_TBIM_tdcn_TEDS) refers to tbc.o(i.Delay) for Delay
    tbc.o(i.get_TBIM_tdcn_TEDS) refers to tbc.o(i.TBC_send_cmd_to_tbim) for TBC_send_cmd_to_tbim
    tbc.o(i.get_TBIM_tdcn_TEDS) refers to printfa.o(i.__0printf) for __2printf
    tbc.o(i.get_epoch) refers to printfa.o(i.__0printf) for __2printf
    tbc.o(i.get_epoch) refers to tbc.o(.bss) for tbc
    tbc.o(i.send_cmd_to_tbim) refers to netbuf.o(i.netbuf_ref) for netbuf_ref
    tbc.o(i.send_cmd_to_tbim) refers to api_lib.o(i.netconn_sendto) for netconn_sendto
    tbc.o(i.send_cmd_to_tbim) refers to netbuf.o(i.netbuf_free) for netbuf_free
    tbc.o(i.send_noArguCmd_to_tbim) refers to netbuf.o(i.netbuf_ref) for netbuf_ref
    tbc.o(i.send_noArguCmd_to_tbim) refers to api_lib.o(i.netconn_sendto) for netconn_sendto
    tbc.o(i.send_noArguCmd_to_tbim) refers to netbuf.o(i.netbuf_free) for netbuf_free
    tbc.o(i.send_schedul_table) refers to ssnp_for_app.o(i.tbc_send_timeslot_msg) for tbc_send_timeslot_msg
    tbc.o(i.send_timeslot_msg) refers to ssnp_for_app.o(i.tbc_send_timeslot_msg) for tbc_send_timeslot_msg
    tbc.o(i.send_timeslot_msg) refers to tbc.o(.bss) for tbc
    tbc.o(i.set_syn_asyn_num) refers to tbc.o(.bss) for tbc
    tbc.o(i.timeslot_alloc) refers to tbc.o(i.send_timeslot_msg) for send_timeslot_msg
    sdp.o(i.add_pad_pbuf) refers to memp.o(i.memp_alloc) for memp_alloc
    sdp.o(i.add_pad_pbuf) refers to printfa.o(i.__0printf) for __2printf
    sdp.o(i.ip_route) refers to netif.o(.data) for netif_list
    sdp.o(i.sdp_bind) refers to sdp.o(.data) for sdp_pcbs
    sdp.o(i.sdp_connect) refers to sdp.o(.data) for sdp_pcbs
    sdp.o(i.sdp_input) refers to pbuf.o(i.pbuf_free) for pbuf_free
    sdp.o(i.sdp_input) refers to printfa.o(i.__0printf) for __2printf
    sdp.o(i.sdp_input) refers to sdp.o(i.set_status_word_protocol_error) for set_status_word_protocol_error
    sdp.o(i.sdp_input) refers to inet_chksum.o(i.inet_chksum) for inet_chksum
    sdp.o(i.sdp_input) refers to pbuf.o(i.pbuf_realloc) for pbuf_realloc
    sdp.o(i.sdp_input) refers to sdp.o(i.addr_check) for addr_check
    sdp.o(i.sdp_input) refers to pbuf.o(i.pbuf_header) for pbuf_header
    sdp.o(i.sdp_input) refers to sdp.o(i.isbroadcast) for isbroadcast
    sdp.o(i.sdp_input) refers to sdp.o(.data) for sdp_pcbs
    sdp.o(i.sdp_input) refers to sdp.o(.constdata) for .constdata
    sdp.o(i.sdp_new) refers to memp.o(i.memp_alloc) for memp_alloc
    sdp.o(i.sdp_new) refers to memseta.o(.text) for __aeabi_memclr4
    sdp.o(i.sdp_remove) refers to memp.o(i.memp_free) for memp_free
    sdp.o(i.sdp_remove) refers to sdp.o(.data) for sdp_pcbs
    sdp.o(i.sdp_send) refers to sdp.o(i.sdp_sendto) for sdp_sendto
    sdp.o(i.sdp_sendto) refers to sdp.o(i.ip_route) for ip_route
    sdp.o(i.sdp_sendto) refers to sdp.o(i.sdp_sendto_if) for sdp_sendto_if
    sdp.o(i.sdp_sendto_if) refers to pbuf.o(i.pbuf_header) for pbuf_header
    sdp.o(i.sdp_sendto_if) refers to pbuf.o(i.pbuf_alloc) for pbuf_alloc
    sdp.o(i.sdp_sendto_if) refers to printfa.o(i.__0printf) for __2printf
    sdp.o(i.sdp_sendto_if) refers to pbuf.o(i.pbuf_chain) for pbuf_chain
    sdp.o(i.sdp_sendto_if) refers to sdp.o(i.add_pad_pbuf) for add_pad_pbuf
    sdp.o(i.sdp_sendto_if) refers to pbuf.o(i.pbuf_free) for pbuf_free
    sdp.o(i.sdp_sendto_if) refers to memp.o(i.memp_free) for memp_free
    sqrt.o(i.__softfp_sqrt) refers (Special) to iusefp.o(.text) for __I$use$fp
    sqrt.o(i.__softfp_sqrt) refers to dsqrt.o(.text) for _dsqrt
    sqrt.o(i.__softfp_sqrt) refers to errno.o(i.__set_errno) for __set_errno
    sqrt.o(i.sqrt) refers (Special) to iusefp.o(.text) for __I$use$fp
    sqrt.o(i.sqrt) refers to dsqrt.o(.text) for _dsqrt
    sqrt.o(i.sqrt) refers to errno.o(i.__set_errno) for __set_errno
    sqrt_x.o(i.____softfp_sqrt$lsc) refers (Special) to iusefp.o(.text) for __I$use$fp
    sqrt_x.o(i.____softfp_sqrt$lsc) refers to cdcmple.o(.text) for __aeabi_cdcmple
    sqrt_x.o(i.____softfp_sqrt$lsc) refers to errno.o(i.__set_errno) for __set_errno
    sqrt_x.o(i.____softfp_sqrt$lsc) refers to dsqrt.o(.text) for _dsqrt
    sqrt_x.o(i.__sqrt$lsc) refers (Special) to iusefp.o(.text) for __I$use$fp
    sqrt_x.o(i.__sqrt$lsc) refers to cdcmple.o(.text) for __aeabi_cdcmple
    sqrt_x.o(i.__sqrt$lsc) refers to errno.o(i.__set_errno) for __set_errno
    sqrt_x.o(i.__sqrt$lsc) refers to dsqrt.o(.text) for _dsqrt
    entry.o(.ARM.Collect$$$$00000000) refers (Special) to entry7.o(.ARM.Collect$$$$00000007) for _main_init
    entry.o(.ARM.Collect$$$$00000000) refers (Special) to entry5.o(.ARM.Collect$$$$00000004) for _main_scatterload
    entry.o(.ARM.Collect$$$$00000000) refers (Special) to entry2.o(.ARM.Collect$$$$00000001) for _main_stk
    printfb.o(i.__0fprintf$bare) refers to printfb.o(i._printf_core) for _printf_core
    printfb.o(i.__0fprintf$bare) refers to uctsk_ssnp_tbc.o(i.fputc) for fputc
    printfb.o(i.__0printf$bare) refers to printfb.o(i._printf_core) for _printf_core
    printfb.o(i.__0printf$bare) refers to uctsk_ssnp_tbc.o(i.fputc) for fputc
    printfb.o(i.__0printf$bare) refers to stdout.o(.data) for __stdout
    printfb.o(i.__0snprintf$bare) refers to printfb.o(i._printf_core) for _printf_core
    printfb.o(i.__0snprintf$bare) refers to printfb.o(i._snputc) for _snputc
    printfb.o(i.__0sprintf$bare) refers to printfb.o(i._printf_core) for _printf_core
    printfb.o(i.__0sprintf$bare) refers to printfb.o(i._sputc) for _sputc
    printfb.o(i.__0vfprintf$bare) refers to printfb.o(i._printf_core) for _printf_core
    printfb.o(i.__0vfprintf$bare) refers to uctsk_ssnp_tbc.o(i.fputc) for fputc
    printfb.o(i.__0vprintf$bare) refers to printfb.o(i._printf_core) for _printf_core
    printfb.o(i.__0vprintf$bare) refers to uctsk_ssnp_tbc.o(i.fputc) for fputc
    printfb.o(i.__0vprintf$bare) refers to stdout.o(.data) for __stdout
    printfb.o(i.__0vsnprintf$bare) refers to printfb.o(i._printf_core) for _printf_core
    printfb.o(i.__0vsnprintf$bare) refers to printfb.o(i._snputc) for _snputc
    printfb.o(i.__0vsprintf$bare) refers to printfb.o(i._printf_core) for _printf_core
    printfb.o(i.__0vsprintf$bare) refers to printfb.o(i._sputc) for _sputc
    printf0.o(i.__0fprintf$0) refers to printf0.o(i._printf_core) for _printf_core
    printf0.o(i.__0fprintf$0) refers to uctsk_ssnp_tbc.o(i.fputc) for fputc
    printf0.o(i.__0printf$0) refers to printf0.o(i._printf_core) for _printf_core
    printf0.o(i.__0printf$0) refers to uctsk_ssnp_tbc.o(i.fputc) for fputc
    printf0.o(i.__0printf$0) refers to stdout.o(.data) for __stdout
    printf0.o(i.__0snprintf$0) refers to printf0.o(i._printf_core) for _printf_core
    printf0.o(i.__0snprintf$0) refers to printf0.o(i._snputc) for _snputc
    printf0.o(i.__0sprintf$0) refers to printf0.o(i._printf_core) for _printf_core
    printf0.o(i.__0sprintf$0) refers to printf0.o(i._sputc) for _sputc
    printf0.o(i.__0vfprintf$0) refers to printf0.o(i._printf_core) for _printf_core
    printf0.o(i.__0vfprintf$0) refers to uctsk_ssnp_tbc.o(i.fputc) for fputc
    printf0.o(i.__0vprintf$0) refers to printf0.o(i._printf_core) for _printf_core
    printf0.o(i.__0vprintf$0) refers to uctsk_ssnp_tbc.o(i.fputc) for fputc
    printf0.o(i.__0vprintf$0) refers to stdout.o(.data) for __stdout
    printf0.o(i.__0vsnprintf$0) refers to printf0.o(i._printf_core) for _printf_core
    printf0.o(i.__0vsnprintf$0) refers to printf0.o(i._snputc) for _snputc
    printf0.o(i.__0vsprintf$0) refers to printf0.o(i._printf_core) for _printf_core
    printf0.o(i.__0vsprintf$0) refers to printf0.o(i._sputc) for _sputc
    printf1.o(i.__0fprintf$1) refers to printf1.o(i._printf_core) for _printf_core
    printf1.o(i.__0fprintf$1) refers to uctsk_ssnp_tbc.o(i.fputc) for fputc
    printf1.o(i.__0printf$1) refers to printf1.o(i._printf_core) for _printf_core
    printf1.o(i.__0printf$1) refers to uctsk_ssnp_tbc.o(i.fputc) for fputc
    printf1.o(i.__0printf$1) refers to stdout.o(.data) for __stdout
    printf1.o(i.__0snprintf$1) refers to printf1.o(i._printf_core) for _printf_core
    printf1.o(i.__0snprintf$1) refers to printf1.o(i._snputc) for _snputc
    printf1.o(i.__0sprintf$1) refers to printf1.o(i._printf_core) for _printf_core
    printf1.o(i.__0sprintf$1) refers to printf1.o(i._sputc) for _sputc
    printf1.o(i.__0vfprintf$1) refers to printf1.o(i._printf_core) for _printf_core
    printf1.o(i.__0vfprintf$1) refers to uctsk_ssnp_tbc.o(i.fputc) for fputc
    printf1.o(i.__0vprintf$1) refers to printf1.o(i._printf_core) for _printf_core
    printf1.o(i.__0vprintf$1) refers to uctsk_ssnp_tbc.o(i.fputc) for fputc
    printf1.o(i.__0vprintf$1) refers to stdout.o(.data) for __stdout
    printf1.o(i.__0vsnprintf$1) refers to printf1.o(i._printf_core) for _printf_core
    printf1.o(i.__0vsnprintf$1) refers to printf1.o(i._snputc) for _snputc
    printf1.o(i.__0vsprintf$1) refers to printf1.o(i._printf_core) for _printf_core
    printf1.o(i.__0vsprintf$1) refers to printf1.o(i._sputc) for _sputc
    printf1.o(i._printf_core) refers to uidiv.o(.text) for __aeabi_uidivmod
    printf2.o(i.__0fprintf$2) refers to printf2.o(i._printf_core) for _printf_core
    printf2.o(i.__0fprintf$2) refers to uctsk_ssnp_tbc.o(i.fputc) for fputc
    printf2.o(i.__0printf$2) refers to printf2.o(i._printf_core) for _printf_core
    printf2.o(i.__0printf$2) refers to uctsk_ssnp_tbc.o(i.fputc) for fputc
    printf2.o(i.__0printf$2) refers to stdout.o(.data) for __stdout
    printf2.o(i.__0snprintf$2) refers to printf2.o(i._printf_core) for _printf_core
    printf2.o(i.__0snprintf$2) refers to printf2.o(i._snputc) for _snputc
    printf2.o(i.__0sprintf$2) refers to printf2.o(i._printf_core) for _printf_core
    printf2.o(i.__0sprintf$2) refers to printf2.o(i._sputc) for _sputc
    printf2.o(i.__0vfprintf$2) refers to printf2.o(i._printf_core) for _printf_core
    printf2.o(i.__0vfprintf$2) refers to uctsk_ssnp_tbc.o(i.fputc) for fputc
    printf2.o(i.__0vprintf$2) refers to printf2.o(i._printf_core) for _printf_core
    printf2.o(i.__0vprintf$2) refers to uctsk_ssnp_tbc.o(i.fputc) for fputc
    printf2.o(i.__0vprintf$2) refers to stdout.o(.data) for __stdout
    printf2.o(i.__0vsnprintf$2) refers to printf2.o(i._printf_core) for _printf_core
    printf2.o(i.__0vsnprintf$2) refers to printf2.o(i._snputc) for _snputc
    printf2.o(i.__0vsprintf$2) refers to printf2.o(i._printf_core) for _printf_core
    printf2.o(i.__0vsprintf$2) refers to printf2.o(i._sputc) for _sputc
    printf3.o(i.__0fprintf$3) refers to printf3.o(i._printf_core) for _printf_core
    printf3.o(i.__0fprintf$3) refers to uctsk_ssnp_tbc.o(i.fputc) for fputc
    printf3.o(i.__0printf$3) refers to printf3.o(i._printf_core) for _printf_core
    printf3.o(i.__0printf$3) refers to uctsk_ssnp_tbc.o(i.fputc) for fputc
    printf3.o(i.__0printf$3) refers to stdout.o(.data) for __stdout
    printf3.o(i.__0snprintf$3) refers to printf3.o(i._printf_core) for _printf_core
    printf3.o(i.__0snprintf$3) refers to printf3.o(i._snputc) for _snputc
    printf3.o(i.__0sprintf$3) refers to printf3.o(i._printf_core) for _printf_core
    printf3.o(i.__0sprintf$3) refers to printf3.o(i._sputc) for _sputc
    printf3.o(i.__0vfprintf$3) refers to printf3.o(i._printf_core) for _printf_core
    printf3.o(i.__0vfprintf$3) refers to uctsk_ssnp_tbc.o(i.fputc) for fputc
    printf3.o(i.__0vprintf$3) refers to printf3.o(i._printf_core) for _printf_core
    printf3.o(i.__0vprintf$3) refers to uctsk_ssnp_tbc.o(i.fputc) for fputc
    printf3.o(i.__0vprintf$3) refers to stdout.o(.data) for __stdout
    printf3.o(i.__0vsnprintf$3) refers to printf3.o(i._printf_core) for _printf_core
    printf3.o(i.__0vsnprintf$3) refers to printf3.o(i._snputc) for _snputc
    printf3.o(i.__0vsprintf$3) refers to printf3.o(i._printf_core) for _printf_core
    printf3.o(i.__0vsprintf$3) refers to printf3.o(i._sputc) for _sputc
    printf3.o(i._printf_core) refers to uidiv.o(.text) for __aeabi_uidivmod
    printf4.o(i.__0fprintf$4) refers to printf4.o(i._printf_core) for _printf_core
    printf4.o(i.__0fprintf$4) refers to uctsk_ssnp_tbc.o(i.fputc) for fputc
    printf4.o(i.__0printf$4) refers to printf4.o(i._printf_core) for _printf_core
    printf4.o(i.__0printf$4) refers to uctsk_ssnp_tbc.o(i.fputc) for fputc
    printf4.o(i.__0printf$4) refers to stdout.o(.data) for __stdout
    printf4.o(i.__0snprintf$4) refers to printf4.o(i._printf_core) for _printf_core
    printf4.o(i.__0snprintf$4) refers to printf4.o(i._snputc) for _snputc
    printf4.o(i.__0sprintf$4) refers to printf4.o(i._printf_core) for _printf_core
    printf4.o(i.__0sprintf$4) refers to printf4.o(i._sputc) for _sputc
    printf4.o(i.__0vfprintf$4) refers to printf4.o(i._printf_core) for _printf_core
    printf4.o(i.__0vfprintf$4) refers to uctsk_ssnp_tbc.o(i.fputc) for fputc
    printf4.o(i.__0vprintf$4) refers to printf4.o(i._printf_core) for _printf_core
    printf4.o(i.__0vprintf$4) refers to uctsk_ssnp_tbc.o(i.fputc) for fputc
    printf4.o(i.__0vprintf$4) refers to stdout.o(.data) for __stdout
    printf4.o(i.__0vsnprintf$4) refers to printf4.o(i._printf_core) for _printf_core
    printf4.o(i.__0vsnprintf$4) refers to printf4.o(i._snputc) for _snputc
    printf4.o(i.__0vsprintf$4) refers to printf4.o(i._printf_core) for _printf_core
    printf4.o(i.__0vsprintf$4) refers to printf4.o(i._sputc) for _sputc
    printf4.o(i._printf_core) refers to uldiv.o(.text) for __aeabi_uldivmod
    printf5.o(i.__0fprintf$5) refers to printf5.o(i._printf_core) for _printf_core
    printf5.o(i.__0fprintf$5) refers to uctsk_ssnp_tbc.o(i.fputc) for fputc
    printf5.o(i.__0printf$5) refers to printf5.o(i._printf_core) for _printf_core
    printf5.o(i.__0printf$5) refers to uctsk_ssnp_tbc.o(i.fputc) for fputc
    printf5.o(i.__0printf$5) refers to stdout.o(.data) for __stdout
    printf5.o(i.__0snprintf$5) refers to printf5.o(i._printf_core) for _printf_core
    printf5.o(i.__0snprintf$5) refers to printf5.o(i._snputc) for _snputc
    printf5.o(i.__0sprintf$5) refers to printf5.o(i._printf_core) for _printf_core
    printf5.o(i.__0sprintf$5) refers to printf5.o(i._sputc) for _sputc
    printf5.o(i.__0vfprintf$5) refers to printf5.o(i._printf_core) for _printf_core
    printf5.o(i.__0vfprintf$5) refers to uctsk_ssnp_tbc.o(i.fputc) for fputc
    printf5.o(i.__0vprintf$5) refers to printf5.o(i._printf_core) for _printf_core
    printf5.o(i.__0vprintf$5) refers to uctsk_ssnp_tbc.o(i.fputc) for fputc
    printf5.o(i.__0vprintf$5) refers to stdout.o(.data) for __stdout
    printf5.o(i.__0vsnprintf$5) refers to printf5.o(i._printf_core) for _printf_core
    printf5.o(i.__0vsnprintf$5) refers to printf5.o(i._snputc) for _snputc
    printf5.o(i.__0vsprintf$5) refers to printf5.o(i._printf_core) for _printf_core
    printf5.o(i.__0vsprintf$5) refers to printf5.o(i._sputc) for _sputc
    printf5.o(i._printf_core) refers to uldiv.o(.text) for __aeabi_uldivmod
    printf6.o(i.__0fprintf$6) refers to printf6.o(i._printf_core) for _printf_core
    printf6.o(i.__0fprintf$6) refers to uctsk_ssnp_tbc.o(i.fputc) for fputc
    printf6.o(i.__0printf$6) refers to printf6.o(i._printf_core) for _printf_core
    printf6.o(i.__0printf$6) refers to uctsk_ssnp_tbc.o(i.fputc) for fputc
    printf6.o(i.__0printf$6) refers to stdout.o(.data) for __stdout
    printf6.o(i.__0snprintf$6) refers to printf6.o(i._printf_core) for _printf_core
    printf6.o(i.__0snprintf$6) refers to printf6.o(i._snputc) for _snputc
    printf6.o(i.__0sprintf$6) refers to printf6.o(i._printf_core) for _printf_core
    printf6.o(i.__0sprintf$6) refers to printf6.o(i._sputc) for _sputc
    printf6.o(i.__0vfprintf$6) refers to printf6.o(i._printf_core) for _printf_core
    printf6.o(i.__0vfprintf$6) refers to uctsk_ssnp_tbc.o(i.fputc) for fputc
    printf6.o(i.__0vprintf$6) refers to printf6.o(i._printf_core) for _printf_core
    printf6.o(i.__0vprintf$6) refers to uctsk_ssnp_tbc.o(i.fputc) for fputc
    printf6.o(i.__0vprintf$6) refers to stdout.o(.data) for __stdout
    printf6.o(i.__0vsnprintf$6) refers to printf6.o(i._printf_core) for _printf_core
    printf6.o(i.__0vsnprintf$6) refers to printf6.o(i._snputc) for _snputc
    printf6.o(i.__0vsprintf$6) refers to printf6.o(i._printf_core) for _printf_core
    printf6.o(i.__0vsprintf$6) refers to printf6.o(i._sputc) for _sputc
    printf6.o(i._printf_core) refers to printf6.o(i._printf_pre_padding) for _printf_pre_padding
    printf6.o(i._printf_core) refers to uidiv.o(.text) for __aeabi_uidivmod
    printf6.o(i._printf_core) refers to printf6.o(i._printf_post_padding) for _printf_post_padding
    printf7.o(i.__0fprintf$7) refers to printf7.o(i._printf_core) for _printf_core
    printf7.o(i.__0fprintf$7) refers to uctsk_ssnp_tbc.o(i.fputc) for fputc
    printf7.o(i.__0printf$7) refers to printf7.o(i._printf_core) for _printf_core
    printf7.o(i.__0printf$7) refers to uctsk_ssnp_tbc.o(i.fputc) for fputc
    printf7.o(i.__0printf$7) refers to stdout.o(.data) for __stdout
    printf7.o(i.__0snprintf$7) refers to printf7.o(i._printf_core) for _printf_core
    printf7.o(i.__0snprintf$7) refers to printf7.o(i._snputc) for _snputc
    printf7.o(i.__0sprintf$7) refers to printf7.o(i._printf_core) for _printf_core
    printf7.o(i.__0sprintf$7) refers to printf7.o(i._sputc) for _sputc
    printf7.o(i.__0vfprintf$7) refers to printf7.o(i._printf_core) for _printf_core
    printf7.o(i.__0vfprintf$7) refers to uctsk_ssnp_tbc.o(i.fputc) for fputc
    printf7.o(i.__0vprintf$7) refers to printf7.o(i._printf_core) for _printf_core
    printf7.o(i.__0vprintf$7) refers to uctsk_ssnp_tbc.o(i.fputc) for fputc
    printf7.o(i.__0vprintf$7) refers to stdout.o(.data) for __stdout
    printf7.o(i.__0vsnprintf$7) refers to printf7.o(i._printf_core) for _printf_core
    printf7.o(i.__0vsnprintf$7) refers to printf7.o(i._snputc) for _snputc
    printf7.o(i.__0vsprintf$7) refers to printf7.o(i._printf_core) for _printf_core
    printf7.o(i.__0vsprintf$7) refers to printf7.o(i._sputc) for _sputc
    printf7.o(i._printf_core) refers to printf7.o(i._printf_pre_padding) for _printf_pre_padding
    printf7.o(i._printf_core) refers to uldiv.o(.text) for __aeabi_uldivmod
    printf7.o(i._printf_core) refers to printf7.o(i._printf_post_padding) for _printf_post_padding
    printf8.o(i.__0fprintf$8) refers to printf8.o(i._printf_core) for _printf_core
    printf8.o(i.__0fprintf$8) refers to uctsk_ssnp_tbc.o(i.fputc) for fputc
    printf8.o(i.__0printf$8) refers to printf8.o(i._printf_core) for _printf_core
    printf8.o(i.__0printf$8) refers to uctsk_ssnp_tbc.o(i.fputc) for fputc
    printf8.o(i.__0printf$8) refers to stdout.o(.data) for __stdout
    printf8.o(i.__0snprintf$8) refers to printf8.o(i._printf_core) for _printf_core
    printf8.o(i.__0snprintf$8) refers to printf8.o(i._snputc) for _snputc
    printf8.o(i.__0sprintf$8) refers to printf8.o(i._printf_core) for _printf_core
    printf8.o(i.__0sprintf$8) refers to printf8.o(i._sputc) for _sputc
    printf8.o(i.__0vfprintf$8) refers to printf8.o(i._printf_core) for _printf_core
    printf8.o(i.__0vfprintf$8) refers to uctsk_ssnp_tbc.o(i.fputc) for fputc
    printf8.o(i.__0vprintf$8) refers to printf8.o(i._printf_core) for _printf_core
    printf8.o(i.__0vprintf$8) refers to uctsk_ssnp_tbc.o(i.fputc) for fputc
    printf8.o(i.__0vprintf$8) refers to stdout.o(.data) for __stdout
    printf8.o(i.__0vsnprintf$8) refers to printf8.o(i._printf_core) for _printf_core
    printf8.o(i.__0vsnprintf$8) refers to printf8.o(i._snputc) for _snputc
    printf8.o(i.__0vsprintf$8) refers to printf8.o(i._printf_core) for _printf_core
    printf8.o(i.__0vsprintf$8) refers to printf8.o(i._sputc) for _sputc
    printf8.o(i._printf_core) refers to printf8.o(i._printf_pre_padding) for _printf_pre_padding
    printf8.o(i._printf_core) refers to uldiv.o(.text) for __aeabi_uldivmod
    printf8.o(i._printf_core) refers to printf8.o(i._printf_post_padding) for _printf_post_padding
    printfa.o(i.__0fprintf) refers (Special) to iusefp.o(.text) for __I$use$fp
    printfa.o(i.__0fprintf) refers to printfa.o(i._printf_core) for _printf_core
    printfa.o(i.__0fprintf) refers to uctsk_ssnp_tbc.o(i.fputc) for fputc
    printfa.o(i.__0printf) refers (Special) to iusefp.o(.text) for __I$use$fp
    printfa.o(i.__0printf) refers to printfa.o(i._printf_core) for _printf_core
    printfa.o(i.__0printf) refers to uctsk_ssnp_tbc.o(i.fputc) for fputc
    printfa.o(i.__0printf) refers to stdout.o(.data) for __stdout
    printfa.o(i.__0snprintf) refers (Special) to iusefp.o(.text) for __I$use$fp
    printfa.o(i.__0snprintf) refers to printfa.o(i._printf_core) for _printf_core
    printfa.o(i.__0snprintf) refers to printfa.o(i._snputc) for _snputc
    printfa.o(i.__0sprintf) refers (Special) to iusefp.o(.text) for __I$use$fp
    printfa.o(i.__0sprintf) refers to printfa.o(i._printf_core) for _printf_core
    printfa.o(i.__0sprintf) refers to printfa.o(i._sputc) for _sputc
    printfa.o(i.__0vfprintf) refers (Special) to iusefp.o(.text) for __I$use$fp
    printfa.o(i.__0vfprintf) refers to printfa.o(i._printf_core) for _printf_core
    printfa.o(i.__0vfprintf) refers to uctsk_ssnp_tbc.o(i.fputc) for fputc
    printfa.o(i.__0vprintf) refers (Special) to iusefp.o(.text) for __I$use$fp
    printfa.o(i.__0vprintf) refers to printfa.o(i._printf_core) for _printf_core
    printfa.o(i.__0vprintf) refers to uctsk_ssnp_tbc.o(i.fputc) for fputc
    printfa.o(i.__0vprintf) refers to stdout.o(.data) for __stdout
    printfa.o(i.__0vsnprintf) refers (Special) to iusefp.o(.text) for __I$use$fp
    printfa.o(i.__0vsnprintf) refers to printfa.o(i._printf_core) for _printf_core
    printfa.o(i.__0vsnprintf) refers to printfa.o(i._snputc) for _snputc
    printfa.o(i.__0vsprintf) refers (Special) to iusefp.o(.text) for __I$use$fp
    printfa.o(i.__0vsprintf) refers to printfa.o(i._printf_core) for _printf_core
    printfa.o(i.__0vsprintf) refers to printfa.o(i._sputc) for _sputc
    printfa.o(i._fp_digits) refers (Special) to iusefp.o(.text) for __I$use$fp
    printfa.o(i._fp_digits) refers to dmul.o(.text) for __aeabi_dmul
    printfa.o(i._fp_digits) refers to ddiv.o(.text) for __aeabi_ddiv
    printfa.o(i._fp_digits) refers to cdrcmple.o(.text) for __aeabi_cdrcmple
    printfa.o(i._fp_digits) refers to dadd.o(.text) for __aeabi_dadd
    printfa.o(i._fp_digits) refers to dfixul.o(.text) for __aeabi_d2ulz
    printfa.o(i._fp_digits) refers to uldiv.o(.text) for __aeabi_uldivmod
    printfa.o(i._printf_core) refers (Special) to iusefp.o(.text) for __I$use$fp
    printfa.o(i._printf_core) refers to printfa.o(i._printf_pre_padding) for _printf_pre_padding
    printfa.o(i._printf_core) refers to uldiv.o(.text) for __aeabi_uldivmod
    printfa.o(i._printf_core) refers to printfa.o(i._printf_post_padding) for _printf_post_padding
    printfa.o(i._printf_core) refers to printfa.o(i._fp_digits) for _fp_digits
    printfa.o(i._printf_core) refers to uidiv.o(.text) for __aeabi_uidivmod
    printfa.o(i._printf_post_padding) refers (Special) to iusefp.o(.text) for __I$use$fp
    printfa.o(i._printf_pre_padding) refers (Special) to iusefp.o(.text) for __I$use$fp
    printfa.o(i._snputc) refers (Special) to iusefp.o(.text) for __I$use$fp
    printfa.o(i._sputc) refers (Special) to iusefp.o(.text) for __I$use$fp
    dflti.o(.text) refers (Special) to iusefp.o(.text) for __I$use$fp
    dflti.o(.text) refers to depilogue.o(.text) for _double_epilogue
    entry2.o(.ARM.Collect$$$$00000001) refers to entry2.o(.ARM.Collect$$$$00002712) for __lit__00000000
    entry2.o(.ARM.Collect$$$$00002712) refers to startup_stm32f10x_cl.o(STACK) for __initial_sp
    entry2.o(__vectab_stack_and_reset_area) refers to startup_stm32f10x_cl.o(STACK) for __initial_sp
    entry2.o(__vectab_stack_and_reset_area) refers to entry.o(.ARM.Collect$$$$00000000) for __main
    entry5.o(.ARM.Collect$$$$00000004) refers to init.o(.text) for __scatterload
    entry7.o(.ARM.Collect$$$$00000007) refers to main.o(i.main) for main
    uldiv.o(.text) refers to llushr.o(.text) for __aeabi_llsr
    uldiv.o(.text) refers to llshl.o(.text) for __aeabi_llsl
    errno.o(i.__aeabi_errno_addr) refers to errno.o(.data) for .data
    errno.o(i.__read_errno) refers to errno.o(.data) for .data
    errno.o(i.__set_errno) refers to errno.o(.data) for .data
    depilogue.o(.text) refers to llshl.o(.text) for __aeabi_llsl
    depilogue.o(.text) refers to llushr.o(.text) for __aeabi_llsr
    dadd.o(.text) refers to llshl.o(.text) for __aeabi_llsl
    dadd.o(.text) refers to llsshr.o(.text) for __aeabi_lasr
    dadd.o(.text) refers to depilogue.o(.text) for _double_epilogue
    dmul.o(.text) refers to depilogue.o(.text) for _double_epilogue
    ddiv.o(.text) refers to depilogue.o(.text) for _double_round
    dsqrt.o(.text) refers to llushr.o(.text) for __aeabi_llsr
    dsqrt.o(.text) refers to depilogue.o(.text) for _double_round
    dfixul.o(.text) refers to llushr.o(.text) for __aeabi_llsr
    dfixul.o(.text) refers to llshl.o(.text) for __aeabi_llsl
    init.o(.text) refers to entry5.o(.ARM.Collect$$$$00000004) for __main_after_scatterload
    glcd.o(i.LCD_WriteReg) refers to glcd.o(i.LCD_WriteIndex) for LCD_WriteIndex
    glcd.o(i.LCD_WriteReg) refers to glcd.o(i.LCD_WriteData) for LCD_WriteData
    glcd.o(i.LCD_ReadReg) refers to glcd.o(i.LCD_WriteIndex) for LCD_WriteIndex
    glcd.o(i.LCD_ReadReg) refers to glcd.o(i.LCD_ReadData) for LCD_ReadData


==============================================================================

Removing Unused input sections from the image.

    Removing uctsk_ssnp_tbc.o(i.TIM5_delay_us), (32 bytes).
    Removing uctsk_ssnp_tbc.o(i.average_time), (192 bytes).
    Removing uctsk_ssnp_tbc.o(i.avertime_new), (188 bytes).
    Removing uctsk_ssnp_tbc.o(i.send_cmd), (36 bytes).
    Removing uctsk_ssnp_tbc.o(i.test), (100 bytes).
    Removing uctsk_ssnp_tbc.o(i.test_analysis), (116 bytes).
    Removing uctsk_ssnp_tbc.o(.constdata), (76 bytes).
    Removing upcomputer.o(i.enQueue), (84 bytes).
    Removing upcomputer.o(i.has_upcomputer_cmd), (12 bytes).
    Removing upcomputer.o(i.isQfull), (40 bytes).
    Removing upcomputer.o(i.send_TEDS_upcomputer), (94 bytes).
    Removing i2c_fram.o(i.I2C_FRAM_BufferWrite), (144 bytes).
    Removing hzlib.o(i.GetGBKCode), (52 bytes).
    Removing hzlib.o(.constdata), (216576 bytes).
    Removing asciilib.o(i.GetASCIICode), (32 bytes).
    Removing asciilib.o(.constdata), (1520 bytes).
    Removing glcd.o(i.GUI_Chinese), (80 bytes).
    Removing glcd.o(i.GUI_Text), (80 bytes).
    Removing glcd.o(i.LCD_BGR2RGB), (26 bytes).
    Removing glcd.o(i.LCD_Clear), (156 bytes).
    Removing glcd.o(i.LCD_Configuration), (104 bytes).
    Removing glcd.o(i.LCD_DrawLine), (250 bytes).
    Removing glcd.o(i.LCD_GetPoint), (192 bytes).
    Removing glcd.o(i.LCD_Initializtion), (5872 bytes).
    Removing glcd.o(i.LCD_SetCursor), (116 bytes).
    Removing glcd.o(i.LCD_SetPoint), (40 bytes).
    Removing glcd.o(i.PutChar), (100 bytes).
    Removing glcd.o(i.PutChinese), (126 bytes).
    Removing glcd.o(i.delay_ms), (30 bytes).
    Removing glcd.o(.data), (1 bytes).
    Removing misc.o(i.NVIC_SetVectorTable), (20 bytes).
    Removing misc.o(i.NVIC_SystemLPConfig), (44 bytes).
    Removing misc.o(i.SysTick_CLKSourceConfig), (40 bytes).
    Removing stm32f10x_flash.o(i.FLASH_ClearFlag), (12 bytes).
    Removing stm32f10x_flash.o(i.FLASH_EnableWriteProtection), (204 bytes).
    Removing stm32f10x_flash.o(i.FLASH_EraseAllBank1Pages), (72 bytes).
    Removing stm32f10x_flash.o(i.FLASH_EraseAllPages), (72 bytes).
    Removing stm32f10x_flash.o(i.FLASH_EraseOptionBytes), (168 bytes).
    Removing stm32f10x_flash.o(i.FLASH_ErasePage), (76 bytes).
    Removing stm32f10x_flash.o(i.FLASH_GetBank1Status), (56 bytes).
    Removing stm32f10x_flash.o(i.FLASH_GetFlagStatus), (48 bytes).
    Removing stm32f10x_flash.o(i.FLASH_GetPrefetchBufferStatus), (24 bytes).
    Removing stm32f10x_flash.o(i.FLASH_GetReadOutProtectionStatus), (24 bytes).
    Removing stm32f10x_flash.o(i.FLASH_GetStatus), (56 bytes).
    Removing stm32f10x_flash.o(i.FLASH_GetUserOptionByte), (12 bytes).
    Removing stm32f10x_flash.o(i.FLASH_GetWriteProtectionOptionByte), (12 bytes).
    Removing stm32f10x_flash.o(i.FLASH_HalfCycleAccessCmd), (28 bytes).
    Removing stm32f10x_flash.o(i.FLASH_ITConfig), (32 bytes).
    Removing stm32f10x_flash.o(i.FLASH_Lock), (20 bytes).
    Removing stm32f10x_flash.o(i.FLASH_LockBank1), (20 bytes).
    Removing stm32f10x_flash.o(i.FLASH_PrefetchBufferCmd), (28 bytes).
    Removing stm32f10x_flash.o(i.FLASH_ProgramHalfWord), (64 bytes).
    Removing stm32f10x_flash.o(i.FLASH_ProgramOptionByteData), (84 bytes).
    Removing stm32f10x_flash.o(i.FLASH_ProgramWord), (100 bytes).
    Removing stm32f10x_flash.o(i.FLASH_ReadOutProtection), (172 bytes).
    Removing stm32f10x_flash.o(i.FLASH_SetLatency), (24 bytes).
    Removing stm32f10x_flash.o(i.FLASH_Unlock), (24 bytes).
    Removing stm32f10x_flash.o(i.FLASH_UnlockBank1), (24 bytes).
    Removing stm32f10x_flash.o(i.FLASH_UserOptionByteConfig), (104 bytes).
    Removing stm32f10x_flash.o(i.FLASH_WaitForLastBank1Operation), (38 bytes).
    Removing stm32f10x_flash.o(i.FLASH_WaitForLastOperation), (38 bytes).
    Removing stm32f10x_gpio.o(i.GPIO_AFIODeInit), (20 bytes).
    Removing stm32f10x_gpio.o(i.GPIO_DeInit), (200 bytes).
    Removing stm32f10x_gpio.o(i.GPIO_EXTILineConfig), (64 bytes).
    Removing stm32f10x_gpio.o(i.GPIO_EventOutputCmd), (12 bytes).
    Removing stm32f10x_gpio.o(i.GPIO_EventOutputConfig), (32 bytes).
    Removing stm32f10x_gpio.o(i.GPIO_PinLockConfig), (18 bytes).
    Removing stm32f10x_gpio.o(i.GPIO_ReadInputData), (8 bytes).
    Removing stm32f10x_gpio.o(i.GPIO_ReadInputDataBit), (18 bytes).
    Removing stm32f10x_gpio.o(i.GPIO_ReadOutputData), (8 bytes).
    Removing stm32f10x_gpio.o(i.GPIO_ReadOutputDataBit), (18 bytes).
    Removing stm32f10x_gpio.o(i.GPIO_ResetBits), (4 bytes).
    Removing stm32f10x_gpio.o(i.GPIO_SetBits), (4 bytes).
    Removing stm32f10x_gpio.o(i.GPIO_StructInit), (16 bytes).
    Removing stm32f10x_gpio.o(i.GPIO_Write), (4 bytes).
    Removing stm32f10x_gpio.o(i.GPIO_WriteBit), (10 bytes).
    Removing stm32f10x_rcc.o(i.RCC_ADCCLKConfig), (24 bytes).
    Removing stm32f10x_rcc.o(i.RCC_APB1PeriphResetCmd), (32 bytes).
    Removing stm32f10x_rcc.o(i.RCC_APB2PeriphResetCmd), (32 bytes).
    Removing stm32f10x_rcc.o(i.RCC_AdjustHSICalibrationValue), (24 bytes).
    Removing stm32f10x_rcc.o(i.RCC_BackupResetCmd), (12 bytes).
    Removing stm32f10x_rcc.o(i.RCC_ClearFlag), (20 bytes).
    Removing stm32f10x_rcc.o(i.RCC_ClearITPendingBit), (12 bytes).
    Removing stm32f10x_rcc.o(i.RCC_ClockSecuritySystemCmd), (12 bytes).
    Removing stm32f10x_rcc.o(i.RCC_DeInit), (92 bytes).
    Removing stm32f10x_rcc.o(i.RCC_GetITStatus), (24 bytes).
    Removing stm32f10x_rcc.o(i.RCC_GetSYSCLKSource), (16 bytes).
    Removing stm32f10x_rcc.o(i.RCC_HCLKConfig), (24 bytes).
    Removing stm32f10x_rcc.o(i.RCC_HSEConfig), (76 bytes).
    Removing stm32f10x_rcc.o(i.RCC_HSICmd), (12 bytes).
    Removing stm32f10x_rcc.o(i.RCC_I2S2CLKConfig), (12 bytes).
    Removing stm32f10x_rcc.o(i.RCC_I2S3CLKConfig), (12 bytes).
    Removing stm32f10x_rcc.o(i.RCC_ITConfig), (36 bytes).
    Removing stm32f10x_rcc.o(i.RCC_LSEConfig), (52 bytes).
    Removing stm32f10x_rcc.o(i.RCC_LSICmd), (12 bytes).
    Removing stm32f10x_rcc.o(i.RCC_OTGFSCLKConfig), (12 bytes).
    Removing stm32f10x_rcc.o(i.RCC_PCLK1Config), (24 bytes).
    Removing stm32f10x_rcc.o(i.RCC_PCLK2Config), (24 bytes).
    Removing stm32f10x_rcc.o(i.RCC_PLL2Cmd), (12 bytes).
    Removing stm32f10x_rcc.o(i.RCC_PLL2Config), (24 bytes).
    Removing stm32f10x_rcc.o(i.RCC_PLLCmd), (12 bytes).
    Removing stm32f10x_rcc.o(i.RCC_PLLConfig), (28 bytes).
    Removing stm32f10x_rcc.o(i.RCC_PREDIV1Config), (32 bytes).
    Removing stm32f10x_rcc.o(i.RCC_PREDIV2Config), (24 bytes).
    Removing stm32f10x_rcc.o(i.RCC_RTCCLKCmd), (12 bytes).
    Removing stm32f10x_rcc.o(i.RCC_RTCCLKConfig), (16 bytes).
    Removing stm32f10x_rcc.o(i.RCC_SYSCLKConfig), (24 bytes).
    Removing stm32f10x_rcc.o(i.RCC_WaitForHSEStartUp), (48 bytes).
    Removing stm32f10x_adc.o(i.ADC_AnalogWatchdogCmd), (20 bytes).
    Removing stm32f10x_adc.o(i.ADC_AnalogWatchdogSingleChannelConfig), (16 bytes).
    Removing stm32f10x_adc.o(i.ADC_AnalogWatchdogThresholdsConfig), (6 bytes).
    Removing stm32f10x_adc.o(i.ADC_AutoInjectedConvCmd), (22 bytes).
    Removing stm32f10x_adc.o(i.ADC_ClearFlag), (6 bytes).
    Removing stm32f10x_adc.o(i.ADC_ClearITPendingBit), (10 bytes).
    Removing stm32f10x_adc.o(i.ADC_Cmd), (22 bytes).
    Removing stm32f10x_adc.o(i.ADC_DMACmd), (22 bytes).
    Removing stm32f10x_adc.o(i.ADC_DeInit), (92 bytes).
    Removing stm32f10x_adc.o(i.ADC_DiscModeChannelCountConfig), (24 bytes).
    Removing stm32f10x_adc.o(i.ADC_DiscModeCmd), (22 bytes).
    Removing stm32f10x_adc.o(i.ADC_ExternalTrigConvCmd), (22 bytes).
    Removing stm32f10x_adc.o(i.ADC_ExternalTrigInjectedConvCmd), (22 bytes).
    Removing stm32f10x_adc.o(i.ADC_ExternalTrigInjectedConvConfig), (16 bytes).
    Removing stm32f10x_adc.o(i.ADC_GetCalibrationStatus), (20 bytes).
    Removing stm32f10x_adc.o(i.ADC_GetConversionValue), (8 bytes).
    Removing stm32f10x_adc.o(i.ADC_GetDualModeConversionValue), (12 bytes).
    Removing stm32f10x_adc.o(i.ADC_GetFlagStatus), (18 bytes).
    Removing stm32f10x_adc.o(i.ADC_GetITStatus), (36 bytes).
    Removing stm32f10x_adc.o(i.ADC_GetInjectedConversionValue), (18 bytes).
    Removing stm32f10x_adc.o(i.ADC_GetResetCalibrationStatus), (20 bytes).
    Removing stm32f10x_adc.o(i.ADC_GetSoftwareStartConvStatus), (20 bytes).
    Removing stm32f10x_adc.o(i.ADC_GetSoftwareStartInjectedConvCmdStatus), (20 bytes).
    Removing stm32f10x_adc.o(i.ADC_ITConfig), (24 bytes).
    Removing stm32f10x_adc.o(i.ADC_Init), (80 bytes).
    Removing stm32f10x_adc.o(i.ADC_InjectedChannelConfig), (130 bytes).
    Removing stm32f10x_adc.o(i.ADC_InjectedDiscModeCmd), (22 bytes).
    Removing stm32f10x_adc.o(i.ADC_InjectedSequencerLengthConfig), (24 bytes).
    Removing stm32f10x_adc.o(i.ADC_RegularChannelConfig), (184 bytes).
    Removing stm32f10x_adc.o(i.ADC_ResetCalibration), (10 bytes).
    Removing stm32f10x_adc.o(i.ADC_SetInjectedOffset), (12 bytes).
    Removing stm32f10x_adc.o(i.ADC_SoftwareStartConvCmd), (22 bytes).
    Removing stm32f10x_adc.o(i.ADC_SoftwareStartInjectedConvCmd), (22 bytes).
    Removing stm32f10x_adc.o(i.ADC_StartCalibration), (10 bytes).
    Removing stm32f10x_adc.o(i.ADC_StructInit), (18 bytes).
    Removing stm32f10x_adc.o(i.ADC_TempSensorVrefintCmd), (44 bytes).
    Removing stm32f10x_bkp.o(i.BKP_ClearFlag), (24 bytes).
    Removing stm32f10x_bkp.o(i.BKP_ClearITPendingBit), (24 bytes).
    Removing stm32f10x_bkp.o(i.BKP_DeInit), (16 bytes).
    Removing stm32f10x_bkp.o(i.BKP_GetFlagStatus), (12 bytes).
    Removing stm32f10x_bkp.o(i.BKP_GetITStatus), (12 bytes).
    Removing stm32f10x_bkp.o(i.BKP_ITConfig), (12 bytes).
    Removing stm32f10x_bkp.o(i.BKP_RTCOutputConfig), (36 bytes).
    Removing stm32f10x_bkp.o(i.BKP_ReadBackupRegister), (16 bytes).
    Removing stm32f10x_bkp.o(i.BKP_SetRTCCalibrationValue), (36 bytes).
    Removing stm32f10x_bkp.o(i.BKP_TamperPinCmd), (12 bytes).
    Removing stm32f10x_bkp.o(i.BKP_TamperPinLevelConfig), (12 bytes).
    Removing stm32f10x_bkp.o(i.BKP_WriteBackupRegister), (16 bytes).
    Removing stm32f10x_can.o(i.CAN_CancelTransmit), (48 bytes).
    Removing stm32f10x_can.o(i.CAN_ClearFlag), (56 bytes).
    Removing stm32f10x_can.o(i.CAN_ClearITPendingBit), (168 bytes).
    Removing stm32f10x_can.o(i.CAN_DBGFreeze), (22 bytes).
    Removing stm32f10x_can.o(i.CAN_DeInit), (56 bytes).
    Removing stm32f10x_can.o(i.CAN_FIFORelease), (22 bytes).
    Removing stm32f10x_can.o(i.CAN_FilterInit), (280 bytes).
    Removing stm32f10x_can.o(i.CAN_GetFlagStatus), (120 bytes).
    Removing stm32f10x_can.o(i.CAN_GetITStatus), (296 bytes).
    Removing stm32f10x_can.o(i.CAN_ITConfig), (18 bytes).
    Removing stm32f10x_can.o(i.CAN_Init), (284 bytes).
    Removing stm32f10x_can.o(i.CAN_MessagePending), (30 bytes).
    Removing stm32f10x_can.o(i.CAN_Receive), (234 bytes).
    Removing stm32f10x_can.o(i.CAN_SlaveStartBank), (72 bytes).
    Removing stm32f10x_can.o(i.CAN_Sleep), (30 bytes).
    Removing stm32f10x_can.o(i.CAN_StructInit), (32 bytes).
    Removing stm32f10x_can.o(i.CAN_Transmit), (294 bytes).
    Removing stm32f10x_can.o(i.CAN_TransmitStatus), (140 bytes).
    Removing stm32f10x_can.o(i.CAN_WakeUp), (48 bytes).
    Removing stm32f10x_can.o(i.CheckITStatus), (16 bytes).
    Removing stm32f10x_cec.o(i.CEC_ClearFlag), (48 bytes).
    Removing stm32f10x_cec.o(i.CEC_ClearITPendingBit), (48 bytes).
    Removing stm32f10x_cec.o(i.CEC_Cmd), (28 bytes).
    Removing stm32f10x_cec.o(i.CEC_DeInit), (22 bytes).
    Removing stm32f10x_cec.o(i.CEC_EndOfMessageCmd), (12 bytes).
    Removing stm32f10x_cec.o(i.CEC_GetFlagStatus), (48 bytes).
    Removing stm32f10x_cec.o(i.CEC_GetITStatus), (44 bytes).
    Removing stm32f10x_cec.o(i.CEC_ITConfig), (12 bytes).
    Removing stm32f10x_cec.o(i.CEC_Init), (40 bytes).
    Removing stm32f10x_cec.o(i.CEC_OwnAddressConfig), (12 bytes).
    Removing stm32f10x_cec.o(i.CEC_ReceiveDataByte), (12 bytes).
    Removing stm32f10x_cec.o(i.CEC_SendDataByte), (12 bytes).
    Removing stm32f10x_cec.o(i.CEC_SetPrescaler), (12 bytes).
    Removing stm32f10x_cec.o(i.CEC_StartOfMessage), (12 bytes).
    Removing stm32f10x_crc.o(i.CRC_CalcBlockCRC), (36 bytes).
    Removing stm32f10x_crc.o(i.CRC_CalcCRC), (16 bytes).
    Removing stm32f10x_crc.o(i.CRC_GetCRC), (12 bytes).
    Removing stm32f10x_crc.o(i.CRC_GetIDRegister), (12 bytes).
    Removing stm32f10x_crc.o(i.CRC_ResetDR), (12 bytes).
    Removing stm32f10x_crc.o(i.CRC_SetIDRegister), (12 bytes).
    Removing stm32f10x_dac.o(i.DAC_Cmd), (60 bytes).
    Removing stm32f10x_dac.o(i.DAC_DMACmd), (60 bytes).
    Removing stm32f10x_dac.o(i.DAC_DeInit), (22 bytes).
    Removing stm32f10x_dac.o(i.DAC_DualSoftwareTriggerCmd), (44 bytes).
    Removing stm32f10x_dac.o(i.DAC_GetDataOutputValue), (24 bytes).
    Removing stm32f10x_dac.o(i.DAC_Init), (68 bytes).
    Removing stm32f10x_dac.o(i.DAC_SetChannel1Data), (20 bytes).
    Removing stm32f10x_dac.o(i.DAC_SetChannel2Data), (20 bytes).
    Removing stm32f10x_dac.o(i.DAC_SetDualChannelData), (36 bytes).
    Removing stm32f10x_dac.o(i.DAC_SoftwareTriggerCmd), (68 bytes).
    Removing stm32f10x_dac.o(i.DAC_StructInit), (12 bytes).
    Removing stm32f10x_dac.o(i.DAC_WaveGenerationCmd), (52 bytes).
    Removing stm32f10x_dbgmcu.o(i.DBGMCU_Config), (32 bytes).
    Removing stm32f10x_dbgmcu.o(i.DBGMCU_GetDEVID), (16 bytes).
    Removing stm32f10x_dbgmcu.o(i.DBGMCU_GetREVID), (12 bytes).
    Removing stm32f10x_dma.o(i.DMA_ClearFlag), (28 bytes).
    Removing stm32f10x_dma.o(i.DMA_ClearITPendingBit), (28 bytes).
    Removing stm32f10x_dma.o(i.DMA_Cmd), (24 bytes).
    Removing stm32f10x_dma.o(i.DMA_DeInit), (336 bytes).
    Removing stm32f10x_dma.o(i.DMA_GetCurrDataCounter), (8 bytes).
    Removing stm32f10x_dma.o(i.DMA_GetFlagStatus), (44 bytes).
    Removing stm32f10x_dma.o(i.DMA_GetITStatus), (44 bytes).
    Removing stm32f10x_dma.o(i.DMA_ITConfig), (18 bytes).
    Removing stm32f10x_dma.o(i.DMA_Init), (60 bytes).
    Removing stm32f10x_dma.o(i.DMA_SetCurrDataCounter), (4 bytes).
    Removing stm32f10x_dma.o(i.DMA_StructInit), (26 bytes).
    Removing stm32f10x_exti.o(i.EXTI_ClearFlag), (12 bytes).
    Removing stm32f10x_exti.o(i.EXTI_ClearITPendingBit), (12 bytes).
    Removing stm32f10x_exti.o(i.EXTI_DeInit), (52 bytes).
    Removing stm32f10x_exti.o(i.EXTI_GenerateSWInterrupt), (24 bytes).
    Removing stm32f10x_exti.o(i.EXTI_GetFlagStatus), (24 bytes).
    Removing stm32f10x_exti.o(i.EXTI_GetITStatus), (44 bytes).
    Removing stm32f10x_exti.o(i.EXTI_Init), (172 bytes).
    Removing stm32f10x_exti.o(i.EXTI_StructInit), (16 bytes).
    Removing stm32f10x_fsmc.o(i.FSMC_ClearFlag), (72 bytes).
    Removing stm32f10x_fsmc.o(i.FSMC_ClearITPendingBit), (72 bytes).
    Removing stm32f10x_fsmc.o(i.FSMC_GetECC), (28 bytes).
    Removing stm32f10x_fsmc.o(i.FSMC_GetFlagStatus), (56 bytes).
    Removing stm32f10x_fsmc.o(i.FSMC_GetITStatus), (68 bytes).
    Removing stm32f10x_fsmc.o(i.FSMC_ITConfig), (136 bytes).
    Removing stm32f10x_fsmc.o(i.FSMC_NANDCmd), (92 bytes).
    Removing stm32f10x_fsmc.o(i.FSMC_NANDDeInit), (72 bytes).
    Removing stm32f10x_fsmc.o(i.FSMC_NANDECCCmd), (92 bytes).
    Removing stm32f10x_fsmc.o(i.FSMC_NANDInit), (140 bytes).
    Removing stm32f10x_fsmc.o(i.FSMC_NANDStructInit), (54 bytes).
    Removing stm32f10x_fsmc.o(i.FSMC_NORSRAMCmd), (52 bytes).
    Removing stm32f10x_fsmc.o(i.FSMC_NORSRAMDeInit), (56 bytes).
    Removing stm32f10x_fsmc.o(i.FSMC_NORSRAMInit), (224 bytes).
    Removing stm32f10x_fsmc.o(i.FSMC_NORSRAMStructInit), (114 bytes).
    Removing stm32f10x_fsmc.o(i.FSMC_PCCARDCmd), (48 bytes).
    Removing stm32f10x_fsmc.o(i.FSMC_PCCARDDeInit), (48 bytes).
    Removing stm32f10x_fsmc.o(i.FSMC_PCCARDInit), (136 bytes).
    Removing stm32f10x_fsmc.o(i.FSMC_PCCARDStructInit), (60 bytes).
    Removing stm32f10x_i2c.o(i.I2C_ARPCmd), (24 bytes).
    Removing stm32f10x_i2c.o(i.I2C_AcknowledgeConfig), (24 bytes).
    Removing stm32f10x_i2c.o(i.I2C_CalculatePEC), (24 bytes).
    Removing stm32f10x_i2c.o(i.I2C_CheckEvent), (42 bytes).
    Removing stm32f10x_i2c.o(i.I2C_ClearFlag), (12 bytes).
    Removing stm32f10x_i2c.o(i.I2C_ClearITPendingBit), (12 bytes).
    Removing stm32f10x_i2c.o(i.I2C_Cmd), (24 bytes).
    Removing stm32f10x_i2c.o(i.I2C_DMACmd), (24 bytes).
    Removing stm32f10x_i2c.o(i.I2C_DMALastTransferCmd), (24 bytes).
    Removing stm32f10x_i2c.o(i.I2C_DeInit), (56 bytes).
    Removing stm32f10x_i2c.o(i.I2C_DualAddressCmd), (24 bytes).
    Removing stm32f10x_i2c.o(i.I2C_FastModeDutyCycleConfig), (28 bytes).
    Removing stm32f10x_i2c.o(i.I2C_GeneralCallCmd), (24 bytes).
    Removing stm32f10x_i2c.o(i.I2C_GenerateSTART), (24 bytes).
    Removing stm32f10x_i2c.o(i.I2C_GenerateSTOP), (24 bytes).
    Removing stm32f10x_i2c.o(i.I2C_GetFlagStatus), (42 bytes).
    Removing stm32f10x_i2c.o(i.I2C_GetITStatus), (38 bytes).
    Removing stm32f10x_i2c.o(i.I2C_GetLastEvent), (26 bytes).
    Removing stm32f10x_i2c.o(i.I2C_GetPEC), (8 bytes).
    Removing stm32f10x_i2c.o(i.I2C_ITConfig), (24 bytes).
    Removing stm32f10x_i2c.o(i.I2C_Init), (236 bytes).
    Removing stm32f10x_i2c.o(i.I2C_OwnAddress2Config), (22 bytes).
    Removing stm32f10x_i2c.o(i.I2C_PECPositionConfig), (28 bytes).
    Removing stm32f10x_i2c.o(i.I2C_ReadRegister), (12 bytes).
    Removing stm32f10x_i2c.o(i.I2C_ReceiveData), (8 bytes).
    Removing stm32f10x_i2c.o(i.I2C_SMBusAlertConfig), (28 bytes).
    Removing stm32f10x_i2c.o(i.I2C_Send7bitAddress), (18 bytes).
    Removing stm32f10x_i2c.o(i.I2C_SendData), (4 bytes).
    Removing stm32f10x_i2c.o(i.I2C_SoftwareResetCmd), (22 bytes).
    Removing stm32f10x_i2c.o(i.I2C_StretchClockCmd), (24 bytes).
    Removing stm32f10x_i2c.o(i.I2C_StructInit), (30 bytes).
    Removing stm32f10x_i2c.o(i.I2C_TransmitPEC), (24 bytes).
    Removing stm32f10x_iwdg.o(i.IWDG_Enable), (16 bytes).
    Removing stm32f10x_iwdg.o(i.IWDG_GetFlagStatus), (24 bytes).
    Removing stm32f10x_iwdg.o(i.IWDG_ReloadCounter), (16 bytes).
    Removing stm32f10x_iwdg.o(i.IWDG_SetPrescaler), (12 bytes).
    Removing stm32f10x_iwdg.o(i.IWDG_SetReload), (12 bytes).
    Removing stm32f10x_iwdg.o(i.IWDG_WriteAccessCmd), (12 bytes).
    Removing stm32f10x_pwr.o(i.PWR_BackupAccessCmd), (12 bytes).
    Removing stm32f10x_pwr.o(i.PWR_ClearFlag), (20 bytes).
    Removing stm32f10x_pwr.o(i.PWR_DeInit), (22 bytes).
    Removing stm32f10x_pwr.o(i.PWR_EnterSTANDBYMode), (56 bytes).
    Removing stm32f10x_pwr.o(i.PWR_EnterSTOPMode), (72 bytes).
    Removing stm32f10x_pwr.o(i.PWR_GetFlagStatus), (24 bytes).
    Removing stm32f10x_pwr.o(i.PWR_PVDCmd), (12 bytes).
    Removing stm32f10x_pwr.o(i.PWR_PVDLevelConfig), (24 bytes).
    Removing stm32f10x_pwr.o(i.PWR_WakeUpPinCmd), (12 bytes).
    Removing stm32f10x_rtc.o(i.RTC_ClearFlag), (32 bytes).
    Removing stm32f10x_rtc.o(i.RTC_ClearITPendingBit), (32 bytes).
    Removing stm32f10x_rtc.o(i.RTC_EnterConfigMode), (24 bytes).
    Removing stm32f10x_rtc.o(i.RTC_ExitConfigMode), (28 bytes).
    Removing stm32f10x_rtc.o(i.RTC_GetCounter), (28 bytes).
    Removing stm32f10x_rtc.o(i.RTC_GetDivider), (36 bytes).
    Removing stm32f10x_rtc.o(i.RTC_GetFlagStatus), (24 bytes).
    Removing stm32f10x_rtc.o(i.RTC_GetITStatus), (44 bytes).
    Removing stm32f10x_rtc.o(i.RTC_ITConfig), (48 bytes).
    Removing stm32f10x_rtc.o(i.RTC_SetAlarm), (36 bytes).
    Removing stm32f10x_rtc.o(i.RTC_SetCounter), (36 bytes).
    Removing stm32f10x_rtc.o(i.RTC_SetPrescaler), (36 bytes).
    Removing stm32f10x_rtc.o(i.RTC_WaitForLastTask), (20 bytes).
    Removing stm32f10x_rtc.o(i.RTC_WaitForSynchro), (40 bytes).
    Removing stm32f10x_sdio.o(i.SDIO_CEATAITCmd), (16 bytes).
    Removing stm32f10x_sdio.o(i.SDIO_ClearFlag), (12 bytes).
    Removing stm32f10x_sdio.o(i.SDIO_ClearITPendingBit), (12 bytes).
    Removing stm32f10x_sdio.o(i.SDIO_ClockCmd), (12 bytes).
    Removing stm32f10x_sdio.o(i.SDIO_CmdStructInit), (14 bytes).
    Removing stm32f10x_sdio.o(i.SDIO_CommandCompletionCmd), (12 bytes).
    Removing stm32f10x_sdio.o(i.SDIO_DMACmd), (12 bytes).
    Removing stm32f10x_sdio.o(i.SDIO_DataConfig), (48 bytes).
    Removing stm32f10x_sdio.o(i.SDIO_DataStructInit), (20 bytes).
    Removing stm32f10x_sdio.o(i.SDIO_DeInit), (36 bytes).
    Removing stm32f10x_sdio.o(i.SDIO_GetCommandResponse), (12 bytes).
    Removing stm32f10x_sdio.o(i.SDIO_GetDataCounter), (12 bytes).
    Removing stm32f10x_sdio.o(i.SDIO_GetFIFOCount), (12 bytes).
    Removing stm32f10x_sdio.o(i.SDIO_GetFlagStatus), (24 bytes).
    Removing stm32f10x_sdio.o(i.SDIO_GetITStatus), (24 bytes).
    Removing stm32f10x_sdio.o(i.SDIO_GetPowerState), (16 bytes).
    Removing stm32f10x_sdio.o(i.SDIO_GetResponse), (16 bytes).
    Removing stm32f10x_sdio.o(i.SDIO_ITConfig), (32 bytes).
    Removing stm32f10x_sdio.o(i.SDIO_Init), (48 bytes).
    Removing stm32f10x_sdio.o(i.SDIO_ReadData), (12 bytes).
    Removing stm32f10x_sdio.o(i.SDIO_SendCEATACmd), (12 bytes).
    Removing stm32f10x_sdio.o(i.SDIO_SendCommand), (44 bytes).
    Removing stm32f10x_sdio.o(i.SDIO_SendSDIOSuspendCmd), (12 bytes).
    Removing stm32f10x_sdio.o(i.SDIO_SetPowerState), (28 bytes).
    Removing stm32f10x_sdio.o(i.SDIO_SetSDIOOperation), (12 bytes).
    Removing stm32f10x_sdio.o(i.SDIO_SetSDIOReadWaitMode), (12 bytes).
    Removing stm32f10x_sdio.o(i.SDIO_StartSDIOReadWait), (12 bytes).
    Removing stm32f10x_sdio.o(i.SDIO_StopSDIOReadWait), (12 bytes).
    Removing stm32f10x_sdio.o(i.SDIO_StructInit), (16 bytes).
    Removing stm32f10x_sdio.o(i.SDIO_WriteData), (12 bytes).
    Removing stm32f10x_spi.o(i.I2S_Cmd), (24 bytes).
    Removing stm32f10x_spi.o(i.I2S_Init), (300 bytes).
    Removing stm32f10x_spi.o(i.I2S_StructInit), (20 bytes).
    Removing stm32f10x_spi.o(i.SPI_BiDirectionalLineConfig), (28 bytes).
    Removing stm32f10x_spi.o(i.SPI_CalculateCRC), (24 bytes).
    Removing stm32f10x_spi.o(i.SPI_Cmd), (24 bytes).
    Removing stm32f10x_spi.o(i.SPI_DataSizeConfig), (18 bytes).
    Removing stm32f10x_spi.o(i.SPI_GetCRC), (16 bytes).
    Removing stm32f10x_spi.o(i.SPI_GetCRCPolynomial), (6 bytes).
    Removing stm32f10x_spi.o(i.SPI_I2S_ClearFlag), (6 bytes).
    Removing stm32f10x_spi.o(i.SPI_I2S_ClearITPendingBit), (20 bytes).
    Removing stm32f10x_spi.o(i.SPI_I2S_DMACmd), (24 bytes).
    Removing stm32f10x_spi.o(i.SPI_I2S_DeInit), (88 bytes).
    Removing stm32f10x_spi.o(i.SPI_I2S_GetFlagStatus), (18 bytes).
    Removing stm32f10x_spi.o(i.SPI_I2S_GetITStatus), (52 bytes).
    Removing stm32f10x_spi.o(i.SPI_I2S_ITConfig), (36 bytes).
    Removing stm32f10x_spi.o(i.SPI_I2S_ReceiveData), (6 bytes).
    Removing stm32f10x_spi.o(i.SPI_I2S_SendData), (4 bytes).
    Removing stm32f10x_spi.o(i.SPI_Init), (60 bytes).
    Removing stm32f10x_spi.o(i.SPI_NSSInternalSoftwareConfig), (30 bytes).
    Removing stm32f10x_spi.o(i.SPI_SSOutputCmd), (24 bytes).
    Removing stm32f10x_spi.o(i.SPI_StructInit), (24 bytes).
    Removing stm32f10x_spi.o(i.SPI_TransmitCRC), (10 bytes).
    Removing stm32f10x_tim.o(i.TI1_Config), (128 bytes).
    Removing stm32f10x_tim.o(i.TI2_Config), (140 bytes).
    Removing stm32f10x_tim.o(i.TI3_Config), (136 bytes).
    Removing stm32f10x_tim.o(i.TI4_Config), (140 bytes).
    Removing stm32f10x_tim.o(i.TIM_ARRPreloadConfig), (24 bytes).
    Removing stm32f10x_tim.o(i.TIM_BDTRConfig), (32 bytes).
    Removing stm32f10x_tim.o(i.TIM_BDTRStructInit), (18 bytes).
    Removing stm32f10x_tim.o(i.TIM_CCPreloadControl), (24 bytes).
    Removing stm32f10x_tim.o(i.TIM_CCxCmd), (34 bytes).
    Removing stm32f10x_tim.o(i.TIM_CCxNCmd), (34 bytes).
    Removing stm32f10x_tim.o(i.TIM_ClearFlag), (6 bytes).
    Removing stm32f10x_tim.o(i.TIM_ClearOC1Ref), (18 bytes).
    Removing stm32f10x_tim.o(i.TIM_ClearOC2Ref), (20 bytes).
    Removing stm32f10x_tim.o(i.TIM_ClearOC3Ref), (18 bytes).
    Removing stm32f10x_tim.o(i.TIM_ClearOC4Ref), (20 bytes).
    Removing stm32f10x_tim.o(i.TIM_CounterModeConfig), (18 bytes).
    Removing stm32f10x_tim.o(i.TIM_CtrlPWMOutputs), (30 bytes).
    Removing stm32f10x_tim.o(i.TIM_DMACmd), (24 bytes).
    Removing stm32f10x_tim.o(i.TIM_DMAConfig), (10 bytes).
    Removing stm32f10x_tim.o(i.TIM_DeInit), (488 bytes).
    Removing stm32f10x_tim.o(i.TIM_ETRClockMode1Config), (54 bytes).
    Removing stm32f10x_tim.o(i.TIM_ETRClockMode2Config), (32 bytes).
    Removing stm32f10x_tim.o(i.TIM_ETRConfig), (24 bytes).
    Removing stm32f10x_tim.o(i.TIM_EncoderInterfaceConfig), (62 bytes).
    Removing stm32f10x_tim.o(i.TIM_ForcedOC1Config), (18 bytes).
    Removing stm32f10x_tim.o(i.TIM_ForcedOC2Config), (22 bytes).
    Removing stm32f10x_tim.o(i.TIM_ForcedOC3Config), (18 bytes).
    Removing stm32f10x_tim.o(i.TIM_ForcedOC4Config), (22 bytes).
    Removing stm32f10x_tim.o(i.TIM_GenerateEvent), (4 bytes).
    Removing stm32f10x_tim.o(i.TIM_GetCapture1), (6 bytes).
    Removing stm32f10x_tim.o(i.TIM_GetCapture2), (6 bytes).
    Removing stm32f10x_tim.o(i.TIM_GetCapture3), (6 bytes).
    Removing stm32f10x_tim.o(i.TIM_GetCapture4), (8 bytes).
    Removing stm32f10x_tim.o(i.TIM_GetFlagStatus), (18 bytes).
    Removing stm32f10x_tim.o(i.TIM_GetPrescaler), (6 bytes).
    Removing stm32f10x_tim.o(i.TIM_ICInit), (172 bytes).
    Removing stm32f10x_tim.o(i.TIM_ICStructInit), (18 bytes).
    Removing stm32f10x_tim.o(i.TIM_ITRxExternalClockConfig), (24 bytes).
    Removing stm32f10x_tim.o(i.TIM_InternalClockConfig), (12 bytes).
    Removing stm32f10x_tim.o(i.TIM_OC1FastConfig), (18 bytes).
    Removing stm32f10x_tim.o(i.TIM_OC1Init), (152 bytes).
    Removing stm32f10x_tim.o(i.TIM_OC1NPolarityConfig), (18 bytes).
    Removing stm32f10x_tim.o(i.TIM_OC1PolarityConfig), (18 bytes).
    Removing stm32f10x_tim.o(i.TIM_OC1PreloadConfig), (18 bytes).
    Removing stm32f10x_tim.o(i.TIM_OC2FastConfig), (22 bytes).
    Removing stm32f10x_tim.o(i.TIM_OC2Init), (156 bytes).
    Removing stm32f10x_tim.o(i.TIM_OC2NPolarityConfig), (22 bytes).
    Removing stm32f10x_tim.o(i.TIM_OC2PolarityConfig), (22 bytes).
    Removing stm32f10x_tim.o(i.TIM_OC2PreloadConfig), (22 bytes).
    Removing stm32f10x_tim.o(i.TIM_OC3FastConfig), (18 bytes).
    Removing stm32f10x_tim.o(i.TIM_OC3Init), (152 bytes).
    Removing stm32f10x_tim.o(i.TIM_OC3NPolarityConfig), (22 bytes).
    Removing stm32f10x_tim.o(i.TIM_OC3PolarityConfig), (22 bytes).
    Removing stm32f10x_tim.o(i.TIM_OC3PreloadConfig), (18 bytes).
    Removing stm32f10x_tim.o(i.TIM_OC4FastConfig), (22 bytes).
    Removing stm32f10x_tim.o(i.TIM_OC4Init), (116 bytes).
    Removing stm32f10x_tim.o(i.TIM_OC4PolarityConfig), (22 bytes).
    Removing stm32f10x_tim.o(i.TIM_OC4PreloadConfig), (22 bytes).
    Removing stm32f10x_tim.o(i.TIM_OCStructInit), (20 bytes).
    Removing stm32f10x_tim.o(i.TIM_PWMIConfig), (124 bytes).
    Removing stm32f10x_tim.o(i.TIM_PrescalerConfig), (6 bytes).
    Removing stm32f10x_tim.o(i.TIM_SelectCCDMA), (24 bytes).
    Removing stm32f10x_tim.o(i.TIM_SelectCOM), (24 bytes).
    Removing stm32f10x_tim.o(i.TIM_SelectHallSensor), (24 bytes).
    Removing stm32f10x_tim.o(i.TIM_SelectInputTrigger), (18 bytes).
    Removing stm32f10x_tim.o(i.TIM_SelectMasterSlaveMode), (18 bytes).
    Removing stm32f10x_tim.o(i.TIM_SelectOCxM), (82 bytes).
    Removing stm32f10x_tim.o(i.TIM_SelectOnePulseMode), (18 bytes).
    Removing stm32f10x_tim.o(i.TIM_SelectOutputTrigger), (18 bytes).
    Removing stm32f10x_tim.o(i.TIM_SelectSlaveMode), (18 bytes).
    Removing stm32f10x_tim.o(i.TIM_SetAutoreload), (4 bytes).
    Removing stm32f10x_tim.o(i.TIM_SetClockDivision), (18 bytes).
    Removing stm32f10x_tim.o(i.TIM_SetCompare1), (4 bytes).
    Removing stm32f10x_tim.o(i.TIM_SetCompare2), (4 bytes).
    Removing stm32f10x_tim.o(i.TIM_SetCompare3), (4 bytes).
    Removing stm32f10x_tim.o(i.TIM_SetCompare4), (6 bytes).
    Removing stm32f10x_tim.o(i.TIM_SetCounter), (4 bytes).
    Removing stm32f10x_tim.o(i.TIM_SetIC1Prescaler), (18 bytes).
    Removing stm32f10x_tim.o(i.TIM_SetIC2Prescaler), (22 bytes).
    Removing stm32f10x_tim.o(i.TIM_SetIC3Prescaler), (18 bytes).
    Removing stm32f10x_tim.o(i.TIM_SetIC4Prescaler), (22 bytes).
    Removing stm32f10x_tim.o(i.TIM_TIxExternalClockConfig), (62 bytes).
    Removing stm32f10x_tim.o(i.TIM_TimeBaseStructInit), (18 bytes).
    Removing stm32f10x_tim.o(i.TIM_UpdateDisableConfig), (24 bytes).
    Removing stm32f10x_tim.o(i.TIM_UpdateRequestConfig), (24 bytes).
    Removing stm32f10x_usart.o(i.USART_ClockInit), (34 bytes).
    Removing stm32f10x_usart.o(i.USART_ClockStructInit), (12 bytes).
    Removing stm32f10x_usart.o(i.USART_DMACmd), (24 bytes).
    Removing stm32f10x_usart.o(i.USART_DeInit), (156 bytes).
    Removing stm32f10x_usart.o(i.USART_HalfDuplexCmd), (24 bytes).
    Removing stm32f10x_usart.o(i.USART_IrDACmd), (24 bytes).
    Removing stm32f10x_usart.o(i.USART_IrDAConfig), (18 bytes).
    Removing stm32f10x_usart.o(i.USART_LINBreakDetectLengthConfig), (18 bytes).
    Removing stm32f10x_usart.o(i.USART_LINCmd), (24 bytes).
    Removing stm32f10x_usart.o(i.USART_OneBitMethodCmd), (24 bytes).
    Removing stm32f10x_usart.o(i.USART_OverSampling8Cmd), (22 bytes).
    Removing stm32f10x_usart.o(i.USART_ReceiverWakeUpCmd), (24 bytes).
    Removing stm32f10x_usart.o(i.USART_SendBreak), (10 bytes).
    Removing stm32f10x_usart.o(i.USART_SetAddress), (18 bytes).
    Removing stm32f10x_usart.o(i.USART_SetGuardTime), (16 bytes).
    Removing stm32f10x_usart.o(i.USART_SetPrescaler), (16 bytes).
    Removing stm32f10x_usart.o(i.USART_SmartCardCmd), (24 bytes).
    Removing stm32f10x_usart.o(i.USART_SmartCardNACKCmd), (24 bytes).
    Removing stm32f10x_usart.o(i.USART_StructInit), (24 bytes).
    Removing stm32f10x_usart.o(i.USART_WakeUpConfig), (18 bytes).
    Removing stm32f10x_wwdg.o(i.WWDG_ClearFlag), (12 bytes).
    Removing stm32f10x_wwdg.o(i.WWDG_DeInit), (22 bytes).
    Removing stm32f10x_wwdg.o(i.WWDG_Enable), (16 bytes).
    Removing stm32f10x_wwdg.o(i.WWDG_EnableIT), (12 bytes).
    Removing stm32f10x_wwdg.o(i.WWDG_GetFlagStatus), (12 bytes).
    Removing stm32f10x_wwdg.o(i.WWDG_SetCounter), (16 bytes).
    Removing stm32f10x_wwdg.o(i.WWDG_SetPrescaler), (32 bytes).
    Removing stm32f10x_wwdg.o(i.WWDG_SetWindowValue), (36 bytes).
    Removing stm32_eth.o(i.ETH_BackPressureActivationCmd), (36 bytes).
    Removing stm32_eth.o(i.ETH_DMAClearFlag), (12 bytes).
    Removing stm32_eth.o(i.ETH_DMAPTPRxDescChainInit), (116 bytes).
    Removing stm32_eth.o(i.ETH_DMAPTPTxDescChainInit), (112 bytes).
    Removing stm32_eth.o(i.ETH_DMARxDescEndOfRingCmd), (22 bytes).
    Removing stm32_eth.o(i.ETH_DMARxDescRingInit), (96 bytes).
    Removing stm32_eth.o(i.ETH_DMARxDescSecondAddressChainedCmd), (22 bytes).
    Removing stm32_eth.o(i.ETH_DMATxDescBufferSizeConfig), (14 bytes).
    Removing stm32_eth.o(i.ETH_DMATxDescCRCCmd), (22 bytes).
    Removing stm32_eth.o(i.ETH_DMATxDescChecksumInsertionConfig), (8 bytes).
    Removing stm32_eth.o(i.ETH_DMATxDescEndOfRingCmd), (22 bytes).
    Removing stm32_eth.o(i.ETH_DMATxDescFrameSegmentConfig), (8 bytes).
    Removing stm32_eth.o(i.ETH_DMATxDescRingInit), (80 bytes).
    Removing stm32_eth.o(i.ETH_DMATxDescSecondAddressChainedCmd), (22 bytes).
    Removing stm32_eth.o(i.ETH_DMATxDescShortFramePaddingCmd), (22 bytes).
    Removing stm32_eth.o(i.ETH_DMATxDescTimeStampCmd), (22 bytes).
    Removing stm32_eth.o(i.ETH_DMATxDescTransmitITConfig), (22 bytes).
    Removing stm32_eth.o(i.ETH_DropRxPkt), (88 bytes).
    Removing stm32_eth.o(i.ETH_EnablePTPTimeStampAddend), (24 bytes).
    Removing stm32_eth.o(i.ETH_EnablePTPTimeStampInterruptTrigger), (24 bytes).
    Removing stm32_eth.o(i.ETH_EnablePTPTimeStampUpdate), (24 bytes).
    Removing stm32_eth.o(i.ETH_GetBufferUnavailableMissedFrameCounter), (12 bytes).
    Removing stm32_eth.o(i.ETH_GetCurrentRxBufferAddress), (12 bytes).
    Removing stm32_eth.o(i.ETH_GetCurrentRxDescStartAddress), (12 bytes).
    Removing stm32_eth.o(i.ETH_GetCurrentTxBufferAddress), (12 bytes).
    Removing stm32_eth.o(i.ETH_GetCurrentTxDescStartAddress), (12 bytes).
    Removing stm32_eth.o(i.ETH_GetDMAFlagStatus), (24 bytes).
    Removing stm32_eth.o(i.ETH_GetDMAITStatus), (24 bytes).
    Removing stm32_eth.o(i.ETH_GetDMAOverflowStatus), (24 bytes).
    Removing stm32_eth.o(i.ETH_GetDMARxDescBufferSize), (20 bytes).
    Removing stm32_eth.o(i.ETH_GetDMARxDescFlagStatus), (18 bytes).
    Removing stm32_eth.o(i.ETH_GetDMATxDescCollisionCount), (10 bytes).
    Removing stm32_eth.o(i.ETH_GetDMATxDescFlagStatus), (18 bytes).
    Removing stm32_eth.o(i.ETH_GetFlowControlBusyStatus), (24 bytes).
    Removing stm32_eth.o(i.ETH_GetFlushTransmitFIFOStatus), (24 bytes).
    Removing stm32_eth.o(i.ETH_GetMACAddress), (40 bytes).
    Removing stm32_eth.o(i.ETH_GetMACFlagStatus), (24 bytes).
    Removing stm32_eth.o(i.ETH_GetMACITStatus), (24 bytes).
    Removing stm32_eth.o(i.ETH_GetMMCITStatus), (72 bytes).
    Removing stm32_eth.o(i.ETH_GetMMCRegister), (12 bytes).
    Removing stm32_eth.o(i.ETH_GetPMTFlagStatus), (24 bytes).
    Removing stm32_eth.o(i.ETH_GetPTPFlagStatus), (24 bytes).
    Removing stm32_eth.o(i.ETH_GetPTPRegister), (12 bytes).
    Removing stm32_eth.o(i.ETH_GetReceiveProcessState), (16 bytes).
    Removing stm32_eth.o(i.ETH_GetRxOverflowMissedFrameCounter), (16 bytes).
    Removing stm32_eth.o(i.ETH_GetTransmitProcessState), (16 bytes).
    Removing stm32_eth.o(i.ETH_GlobalUnicastWakeUpCmd), (36 bytes).
    Removing stm32_eth.o(i.ETH_HandlePTPRxPkt), (260 bytes).
    Removing stm32_eth.o(i.ETH_HandlePTPTxPkt), (320 bytes).
    Removing stm32_eth.o(i.ETH_HandleRxPkt), (204 bytes).
    Removing stm32_eth.o(i.ETH_HandleTxPkt), (184 bytes).
    Removing stm32_eth.o(i.ETH_InitializePTPTimeStamp), (24 bytes).
    Removing stm32_eth.o(i.ETH_InitiatePauseControlFrame), (20 bytes).
    Removing stm32_eth.o(i.ETH_MACAddressFilterConfig), (44 bytes).
    Removing stm32_eth.o(i.ETH_MACAddressMaskBytesFilterConfig), (36 bytes).
    Removing stm32_eth.o(i.ETH_MACAddressPerfectFilterCmd), (44 bytes).
    Removing stm32_eth.o(i.ETH_MACITConfig), (32 bytes).
    Removing stm32_eth.o(i.ETH_MMCCounterFreezeCmd), (44 bytes).
    Removing stm32_eth.o(i.ETH_MMCCounterRolloverCmd), (44 bytes).
    Removing stm32_eth.o(i.ETH_MMCCountersReset), (24 bytes).
    Removing stm32_eth.o(i.ETH_MMCITConfig), (92 bytes).
    Removing stm32_eth.o(i.ETH_MMCResetOnReadCmd), (44 bytes).
    Removing stm32_eth.o(i.ETH_MagicPacketDetectionCmd), (36 bytes).
    Removing stm32_eth.o(i.ETH_PHYLoopBackCmd), (52 bytes).
    Removing stm32_eth.o(i.ETH_PTPTimeStampCmd), (44 bytes).
    Removing stm32_eth.o(i.ETH_PTPUpdateMethodConfig), (44 bytes).
    Removing stm32_eth.o(i.ETH_PowerDownCmd), (36 bytes).
    Removing stm32_eth.o(i.ETH_ResetWakeUpFrameFilterRegisterPointer), (20 bytes).
    Removing stm32_eth.o(i.ETH_ResumeDMAReception), (12 bytes).
    Removing stm32_eth.o(i.ETH_ResumeDMATransmission), (12 bytes).
    Removing stm32_eth.o(i.ETH_SetDMARxDescOwnBit), (10 bytes).
    Removing stm32_eth.o(i.ETH_SetDMATxDescOwnBit), (10 bytes).
    Removing stm32_eth.o(i.ETH_SetPTPSubSecondIncrement), (12 bytes).
    Removing stm32_eth.o(i.ETH_SetPTPTargetTime), (20 bytes).
    Removing stm32_eth.o(i.ETH_SetPTPTimeStampAddend), (12 bytes).
    Removing stm32_eth.o(i.ETH_SetPTPTimeStampUpdate), (28 bytes).
    Removing stm32_eth.o(i.ETH_SetWakeUpFrameFilterRegister), (28 bytes).
    Removing stm32_eth.o(i.ETH_WakeUpFrameDetectionCmd), (36 bytes).
    Removing core_cm3.o(.emb_text), (32 bytes).
    Removing system_stm32f10x.o(i.SystemCoreClockUpdate), (256 bytes).
    Removing startup_stm32f10x_cl.o(HEAP), (1024 bytes).
    Removing os_cpu_c.o(i.OSTaskDelHook), (12 bytes).
    Removing os_cpu_c.o(i.OS_CPU_SysTickClkFreq), (16 bytes).
    Removing os_cpu_c.o(i.OS_CPU_SysTickHandler), (40 bytes).
    Removing os_core.o(i.OSEventNameGet), (124 bytes).
    Removing os_core.o(i.OSEventPendMulti), (728 bytes).
    Removing os_core.o(i.OSIntEnter), (36 bytes).
    Removing os_core.o(i.OSVersion), (6 bytes).
    Removing os_core.o(i.OS_Dummy), (2 bytes).
    Removing os_core.o(i.OS_EventTaskWaitMulti), (156 bytes).
    Removing os_core.o(i.OS_MemCopy), (20 bytes).
    Removing os_core.o(i.OS_StrLen), (20 bytes).
    Removing os_flag.o(i.OSFlagAccept), (278 bytes).
    Removing os_flag.o(i.OSFlagCreate), (100 bytes).
    Removing os_flag.o(i.OSFlagDel), (236 bytes).
    Removing os_flag.o(i.OSFlagNameGet), (104 bytes).
    Removing os_flag.o(i.OSFlagNameSet), (88 bytes).
    Removing os_flag.o(i.OSFlagPend), (624 bytes).
    Removing os_flag.o(i.OSFlagPendGetFlagsRdy), (32 bytes).
    Removing os_flag.o(i.OSFlagPost), (334 bytes).
    Removing os_flag.o(i.OSFlagQuery), (58 bytes).
    Removing os_flag.o(i.OS_FlagBlock), (180 bytes).
    Removing os_flag.o(i.OS_FlagTaskRdy), (104 bytes).
    Removing os_flag.o(i.OS_FlagUnlink), (36 bytes).
    Removing os_mbox.o(i.OSMboxAccept), (44 bytes).
    Removing os_mbox.o(i.OSMboxCreate), (84 bytes).
    Removing os_mbox.o(i.OSMboxDel), (232 bytes).
    Removing os_mbox.o(i.OSMboxPend), (276 bytes).
    Removing os_mbox.o(i.OSMboxPendAbort), (138 bytes).
    Removing os_mbox.o(i.OSMboxPost), (92 bytes).
    Removing os_mbox.o(i.OSMboxPostOpt), (132 bytes).
    Removing os_mbox.o(i.OSMboxQuery), (88 bytes).
    Removing os_mem.o(i.OSMemNameGet), (84 bytes).
    Removing os_mem.o(i.OSMemNameSet), (68 bytes).
    Removing os_mem.o(i.OSMemQuery), (64 bytes).
    Removing os_mutex.o(i.OSMutexAccept), (156 bytes).
    Removing os_mutex.o(i.OSMutexCreate), (168 bytes).
    Removing os_mutex.o(i.OSMutexDel), (304 bytes).
    Removing os_mutex.o(i.OSMutexPend), (616 bytes).
    Removing os_mutex.o(i.OSMutexPost), (208 bytes).
    Removing os_mutex.o(i.OSMutexQuery), (124 bytes).
    Removing os_mutex.o(i.OSMutex_RdyAtPrio), (140 bytes).
    Removing os_q.o(i.OSQPendAbort), (138 bytes).
    Removing os_q.o(i.OSQPostFront), (122 bytes).
    Removing os_q.o(i.OSQPostOpt), (188 bytes).
    Removing os_q.o(i.OSQQuery), (110 bytes).
    Removing os_sem.o(i.OSSemAccept), (48 bytes).
    Removing os_sem.o(i.OSSemPendAbort), (138 bytes).
    Removing os_sem.o(i.OSSemQuery), (88 bytes).
    Removing os_sem.o(i.OSSemSet), (74 bytes).
    Removing os_task.o(i.OSTaskChangePrio), (464 bytes).
    Removing os_task.o(i.OSTaskDel), (372 bytes).
    Removing os_task.o(i.OSTaskDelReq), (120 bytes).
    Removing os_task.o(i.OSTaskNameGet), (152 bytes).
    Removing os_task.o(i.OSTaskQuery), (108 bytes).
    Removing os_task.o(i.OSTaskRegGet), (96 bytes).
    Removing os_task.o(i.OSTaskRegSet), (92 bytes).
    Removing os_task.o(i.OSTaskResume), (184 bytes).
    Removing os_task.o(i.OS_TaskReturn), (24 bytes).
    Removing os_time.o(i.OSTimeDlyResume), (188 bytes).
    Removing os_time.o(i.OSTimeSet), (28 bytes).
    Removing os_tmr.o(i.OSTmrCreate), (148 bytes).
    Removing os_tmr.o(i.OSTmrDel), (140 bytes).
    Removing os_tmr.o(i.OSTmrNameGet), (140 bytes).
    Removing os_tmr.o(i.OSTmrRemainGet), (180 bytes).
    Removing os_tmr.o(i.OSTmrStart), (144 bytes).
    Removing os_tmr.o(i.OSTmrStateGet), (100 bytes).
    Removing os_tmr.o(i.OSTmrStop), (196 bytes).
    Removing os_tmr.o(i.OSTmr_Alloc), (64 bytes).
    Removing os_tmr.o(i.OSTmr_Free), (76 bytes).
    Removing os_apphooks.o(i.App_TaskDelHook), (2 bytes).
    Removing os_apphooks.o(i.App_TaskReturnHook), (2 bytes).
    Removing os_apphooks.o(i.OSTaskReturnHook), (2 bytes).
    Removing cpu_c.o(i.CPU_BitBandClr), (68 bytes).
    Removing cpu_c.o(i.CPU_BitBandSet), (68 bytes).
    Removing cpu_c.o(i.CPU_IntSrcDis), (264 bytes).
    Removing cpu_c.o(i.CPU_IntSrcEn), (264 bytes).
    Removing cpu_c.o(i.CPU_IntSrcPrioGet), (340 bytes).
    Removing cpu_c.o(i.CPU_IntSrcPrioSet), (432 bytes).
    Removing lib_mem.o(i.Mem_Clr), (18 bytes).
    Removing lib_mem.o(i.Mem_Cmp), (196 bytes).
    Removing lib_mem.o(i.Mem_Init), (2 bytes).
    Removing lib_mem.o(i.Mem_Set), (110 bytes).
    Removing lib_str.o(i.Str_Cat), (72 bytes).
    Removing lib_str.o(i.Str_Cat_N), (84 bytes).
    Removing lib_str.o(i.Str_Char), (44 bytes).
    Removing lib_str.o(i.Str_Char_Last), (52 bytes).
    Removing lib_str.o(i.Str_Char_N), (60 bytes).
    Removing lib_str.o(i.Str_Cmp), (110 bytes).
    Removing lib_str.o(i.Str_Cmp_N), (140 bytes).
    Removing lib_str.o(i.Str_Copy), (52 bytes).
    Removing lib_str.o(i.Str_Copy_N), (66 bytes).
    Removing lib_str.o(i.Str_Len), (20 bytes).
    Removing lib_str.o(i.Str_Str), (134 bytes).
    Removing lib_mem_a.o(.text), (544 bytes).
    Removing api_lib.o(i.netconn_delete), (40 bytes).
    Removing api_lib.o(i.netconn_disconnect), (52 bytes).
    Removing api_lib.o(i.netconn_free), (160 bytes).
    Removing api_lib.o(i.netconn_recv_unblock), (70 bytes).
    Removing api_lib.o(i.netconn_recvtrigger), (62 bytes).
    Removing api_lib.o(i.netconn_recvtrigger_buf), (50 bytes).
    Removing api_lib.o(i.netconn_recvtrigger_unblock), (82 bytes).
    Removing api_lib.o(i.netconn_sendtrigger), (40 bytes).
    Removing api_msg.o(i.do_delconn), (114 bytes).
    Removing api_msg.o(i.do_disconnect), (82 bytes).
    Removing api_msg.o(i.netconn_drain), (42 bytes).
    Removing dp.o(i.checksum), (8 bytes).
    Removing dp.o(i.dp_disconnect), (18 bytes).
    Removing dp.o(i.dp_frag_output), (8 bytes).
    Removing dp.o(i.dp_output), (116 bytes).
    Removing dp.o(i.dp_remove), (60 bytes).
    Removing dp.o(i.dp_send), (20 bytes).
    Removing netbuf.o(i.netbuf_alloc), (42 bytes).
    Removing netbuf.o(i.netbuf_data), (28 bytes).
    Removing netbuf.o(i.netbuf_new), (28 bytes).
    Removing netif.o(i.netif_find), (68 bytes).
    Removing netif.o(i.netif_remove), (60 bytes).
    Removing netif.o(i.netif_set_addr), (4 bytes).
    Removing pbuf.o(i.pbuf_clen), (18 bytes).
    Removing pbuf.o(i.pbuf_coalesce), (88 bytes).
    Removing pbuf.o(i.pbuf_copy), (400 bytes).
    Removing pbuf.o(i.pbuf_copy_partical), (232 bytes).
    Removing pbuf.o(i.pbuf_dechain), (46 bytes).
    Removing pbuf.o(i.pbuf_take), (260 bytes).
    Removing ssnp.o(i.ssnp_timeout), (68 bytes).
    Removing ssnp.o(i.ssnp_untimeout), (60 bytes).
    Removing tbim.o(i.TBIM_init), (364 bytes).
    Removing tbim.o(i.TBIM_recv_cmd_and_execute), (160 bytes).
    Removing tbim.o(i.TBIM_recv_trigger_and_execute), (32 bytes).
    Removing tbim.o(i.TBIM_send_cmd_reply_msg), (76 bytes).
    Removing tbim.o(i.TBIM_send_streaming_data), (140 bytes).
    Removing tbim.o(i.addressGroupDef), (2 bytes).
    Removing tbim.o(i.calibrateTC), (2 bytes).
    Removing tbim.o(i.disableCorrections), (2 bytes).
    Removing tbim.o(i.disableTCtrigger), (2 bytes).
    Removing tbim.o(i.enableCorrections), (2 bytes).
    Removing tbim.o(i.enableTC), (2 bytes).
    Removing tbim.o(i.enableTCtrigger), (2 bytes).
    Removing tbim.o(i.eraseOperationSetup), (2 bytes).
    Removing tbim.o(i.execute), (252 bytes).
    Removing tbim.o(i.get_TBIM_Chn_num), (12 bytes).
    Removing tbim.o(i.get_TBIM_init_state), (12 bytes).
    Removing tbim.o(i.get_asy_flag), (8 bytes).
    Removing tbim.o(i.get_payload_encoding), (8 bytes).
    Removing tbim.o(i.get_reflect_delay), (8 bytes).
    Removing tbim.o(i.get_reflect_delay_uncertainty), (8 bytes).
    Removing tbim.o(i.get_sensor_data), (48 bytes).
    Removing tbim.o(i.get_sensor_period), (20 bytes).
    Removing tbim.o(i.get_start_delay), (8 bytes).
    Removing tbim.o(i.get_uuid), (8 bytes).
    Removing tbim.o(i.halt), (2 bytes).
    Removing tbim.o(i.insertChannel), (32 bytes).
    Removing tbim.o(i.invalidCommand), (2 bytes).
    Removing tbim.o(i.is_uuid_eq), (36 bytes).
    Removing tbim.o(i.max_period), (48 bytes).
    Removing tbim.o(i.queryDataBlock), (2 bytes).
    Removing tbim.o(i.queryTEDS), (340 bytes).
    Removing tbim.o(i.readAddressGroupAssignment), (2 bytes).
    Removing tbim.o(i.readOPmode), (2 bytes).
    Removing tbim.o(i.readServiceReqMask), (2 bytes).
    Removing tbim.o(i.readStatus), (2 bytes).
    Removing tbim.o(i.readTBIMstruct), (204 bytes).
    Removing tbim.o(i.readTBIMversion), (2 bytes).
    Removing tbim.o(i.readTCdata), (2 bytes).
    Removing tbim.o(i.readTCdataBlock), (2 bytes).
    Removing tbim.o(i.readTCdataRepCount), (2 bytes).
    Removing tbim.o(i.readTCpretriggerCount), (2 bytes).
    Removing tbim.o(i.readTEDS), (340 bytes).
    Removing tbim.o(i.reset), (2 bytes).
    Removing tbim.o(i.rundiagnostics), (2 bytes).
    Removing tbim.o(i.send_cmd_reply), (2 bytes).
    Removing tbim.o(i.sent_trigger_reply), (2 bytes).
    Removing tbim.o(i.setOPmode), (2 bytes).
    Removing tbim.o(i.setTCdataRepCount), (2 bytes).
    Removing tbim.o(i.setTCpretriggerCount), (2 bytes).
    Removing tbim.o(i.sleep), (2 bytes).
    Removing tbim.o(i.storeOperationSetup), (2 bytes).
    Removing tbim.o(i.trigger), (56 bytes).
    Removing tbim.o(i.trigger_do), (2 bytes).
    Removing tbim.o(i.updateTEDS), (2 bytes).
    Removing tbim.o(i.wakeup), (2 bytes).
    Removing tbim.o(i.writeServiceReqMask), (2 bytes).
    Removing tbim.o(i.writeTCdata), (2 bytes).
    Removing tbim.o(i.writeTCdataBlock), (2 bytes).
    Removing tbim.o(i.writeTEDS), (2 bytes).
    Removing tbim.o(i.zeroTC), (2 bytes).
    Removing tbim.o(.bss), (276 bytes).
    Removing tbim.o(.data), (136 bytes).
    Removing teds.o(i.phy_teds_asy_flag), (12 bytes).
    Removing teds.o(i.phy_teds_payload_encoding), (12 bytes).
    Removing teds.o(i.phy_teds_reflect_delay), (12 bytes).
    Removing teds.o(i.phy_teds_reflect_delay_uncertainty), (12 bytes).
    Removing teds.o(i.phy_teds_start_delay), (12 bytes).
    Removing teds.o(.data), (21 bytes).
    Removing timer.o(i.discovery_timer), (36 bytes).
    Removing tp.o(i.set_status_word_protocol_error), (2 bytes).
    Removing tp.o(i.tp_disconnect), (18 bytes).
    Removing tp.o(i.tp_remove), (60 bytes).
    Removing tp.o(i.tp_send), (6 bytes).
    Removing ssnp_for_app.o(i.set_discovery_timer), (24 bytes).
    Removing tbc.o(i.TBC_send_cmd), (34 bytes).
    Removing tbc.o(i.TBC_send_trigger), (22 bytes).
    Removing tbc.o(i.TBC_send_trigger_to_tbim), (28 bytes).
    Removing tbc.o(i.send_schedul_table), (68 bytes).
    Removing tbimdriver.o(i.findTdcn), (6 bytes).
    Removing tbimdriver.o(i.getDataFromChn), (6 bytes).
    Removing tbimdriver.o(i.getTedsFromTdcn), (6 bytes).
    Removing sdp.o(i.checksum), (8 bytes).
    Removing sdp.o(i.dp_frag_output), (8 bytes).
    Removing sdp.o(i.sdp_disconnect), (18 bytes).
    Removing sdp.o(i.sdp_remove), (60 bytes).
    Removing sdp.o(i.sdp_send), (20 bytes).
    Removing dflti.o(.text), (34 bytes).
    Removing dsqrt.o(.text), (160 bytes).
    Removing cdcmple.o(.text), (40 bytes).
    Removing glcd.o(i.LCD_WriteIndex), (56 bytes).
    Removing glcd.o(i.LCD_WriteData), (48 bytes).
    Removing glcd.o(i.LCD_ReadData), (100 bytes).
    Removing glcd.o(i.LCD_WriteReg), (48 bytes).
    Removing glcd.o(i.LCD_ReadReg), (48 bytes).

776 unused section(s) (total 268146 bytes) removed from the image.

==============================================================================

Image Symbol Table

    Local Symbols

    Symbol Name                              Value     Ov Type        Size  Object(Section)

    ../../../cmprslib/zerorunl2.c            0x00000000   Number         0  __dczerorl2.o ABSOLUTE
    ../../microlib/division.c                0x00000000   Number         0  uldiv.o ABSOLUTE
    ../../microlib/division.c                0x00000000   Number         0  uidiv.o ABSOLUTE
    ../../microlib/errno.c                   0x00000000   Number         0  errno.o ABSOLUTE
    ../../microlib/fpadd.c                   0x00000000   Number         0  dadd.o ABSOLUTE
    ../../microlib/fpdiv.c                   0x00000000   Number         0  ddiv.o ABSOLUTE
    ../../microlib/fpepilogue.c              0x00000000   Number         0  depilogue.o ABSOLUTE
    ../../microlib/fpfix.c                   0x00000000   Number         0  dfixul.o ABSOLUTE
    ../../microlib/fpflt.c                   0x00000000   Number         0  dflti.o ABSOLUTE
    ../../microlib/fpmul.c                   0x00000000   Number         0  dmul.o ABSOLUTE
    ../../microlib/fpsqrt.c                  0x00000000   Number         0  dsqrt.o ABSOLUTE
    ../../microlib/init/entry.s              0x00000000   Number         0  entry.o ABSOLUTE
    ../../microlib/init/entry.s              0x00000000   Number         0  entry2.o ABSOLUTE
    ../../microlib/init/entry.s              0x00000000   Number         0  entry5.o ABSOLUTE
    ../../microlib/init/entry.s              0x00000000   Number         0  entry7.o ABSOLUTE
    ../../microlib/longlong.c                0x00000000   Number         0  llsshr.o ABSOLUTE
    ../../microlib/longlong.c                0x00000000   Number         0  llshl.o ABSOLUTE
    ../../microlib/longlong.c                0x00000000   Number         0  llushr.o ABSOLUTE
    ../../microlib/printf/printf.c           0x00000000   Number         0  printf0.o ABSOLUTE
    ../../microlib/printf/printf.c           0x00000000   Number         0  printfb.o ABSOLUTE
    ../../microlib/printf/printf.c           0x00000000   Number         0  printfa.o ABSOLUTE
    ../../microlib/printf/printf.c           0x00000000   Number         0  printf6.o ABSOLUTE
    ../../microlib/printf/printf.c           0x00000000   Number         0  printf5.o ABSOLUTE
    ../../microlib/printf/printf.c           0x00000000   Number         0  printf4.o ABSOLUTE
    ../../microlib/printf/printf.c           0x00000000   Number         0  printf3.o ABSOLUTE
    ../../microlib/printf/printf.c           0x00000000   Number         0  printf2.o ABSOLUTE
    ../../microlib/printf/printf.c           0x00000000   Number         0  printf1.o ABSOLUTE
    ../../microlib/printf/printf.c           0x00000000   Number         0  printf7.o ABSOLUTE
    ../../microlib/printf/printf.c           0x00000000   Number         0  printf8.o ABSOLUTE
    ../../microlib/printf/stubs.s            0x00000000   Number         0  stubs.o ABSOLUTE
    ../../microlib/stdio/streams.c           0x00000000   Number         0  stdout.o ABSOLUTE
    ../../microlib/string/memcpy.c           0x00000000   Number         0  memcpyb.o ABSOLUTE
    ../../microlib/string/memcpy.c           0x00000000   Number         0  memcpya.o ABSOLUTE
    ../../microlib/string/memset.c           0x00000000   Number         0  memseta.o ABSOLUTE
    ../../microlib/stubs.s                   0x00000000   Number         0  iusefp.o ABSOLUTE
    ../../sqrt.c                             0x00000000   Number         0  sqrt.o ABSOLUTE
    ../../sqrt.c                             0x00000000   Number         0  sqrt_x.o ABSOLUTE
    ..\Libraries\CMSIS\CM3\CoreSupport\core_cm3.c 0x00000000   Number         0  core_cm3.o ABSOLUTE
    ..\Libraries\CMSIS\CM3\DeviceSupport\ST\STM32F10x\startup\arm\startup_stm32f10x_cl.s 0x00000000   Number         0  startup_stm32f10x_cl.o ABSOLUTE
    ..\Libraries\STM32F10x_StdPeriph_Driver\src\misc.c 0x00000000   Number         0  misc.o ABSOLUTE
    ..\Libraries\STM32F10x_StdPeriph_Driver\src\stm32f10x_adc.c 0x00000000   Number         0  stm32f10x_adc.o ABSOLUTE
    ..\Libraries\STM32F10x_StdPeriph_Driver\src\stm32f10x_bkp.c 0x00000000   Number         0  stm32f10x_bkp.o ABSOLUTE
    ..\Libraries\STM32F10x_StdPeriph_Driver\src\stm32f10x_can.c 0x00000000   Number         0  stm32f10x_can.o ABSOLUTE
    ..\Libraries\STM32F10x_StdPeriph_Driver\src\stm32f10x_cec.c 0x00000000   Number         0  stm32f10x_cec.o ABSOLUTE
    ..\Libraries\STM32F10x_StdPeriph_Driver\src\stm32f10x_crc.c 0x00000000   Number         0  stm32f10x_crc.o ABSOLUTE
    ..\Libraries\STM32F10x_StdPeriph_Driver\src\stm32f10x_dac.c 0x00000000   Number         0  stm32f10x_dac.o ABSOLUTE
    ..\Libraries\STM32F10x_StdPeriph_Driver\src\stm32f10x_dbgmcu.c 0x00000000   Number         0  stm32f10x_dbgmcu.o ABSOLUTE
    ..\Libraries\STM32F10x_StdPeriph_Driver\src\stm32f10x_dma.c 0x00000000   Number         0  stm32f10x_dma.o ABSOLUTE
    ..\Libraries\STM32F10x_StdPeriph_Driver\src\stm32f10x_exti.c 0x00000000   Number         0  stm32f10x_exti.o ABSOLUTE
    ..\Libraries\STM32F10x_StdPeriph_Driver\src\stm32f10x_flash.c 0x00000000   Number         0  stm32f10x_flash.o ABSOLUTE
    ..\Libraries\STM32F10x_StdPeriph_Driver\src\stm32f10x_fsmc.c 0x00000000   Number         0  stm32f10x_fsmc.o ABSOLUTE
    ..\Libraries\STM32F10x_StdPeriph_Driver\src\stm32f10x_gpio.c 0x00000000   Number         0  stm32f10x_gpio.o ABSOLUTE
    ..\Libraries\STM32F10x_StdPeriph_Driver\src\stm32f10x_i2c.c 0x00000000   Number         0  stm32f10x_i2c.o ABSOLUTE
    ..\Libraries\STM32F10x_StdPeriph_Driver\src\stm32f10x_iwdg.c 0x00000000   Number         0  stm32f10x_iwdg.o ABSOLUTE
    ..\Libraries\STM32F10x_StdPeriph_Driver\src\stm32f10x_pwr.c 0x00000000   Number         0  stm32f10x_pwr.o ABSOLUTE
    ..\Libraries\STM32F10x_StdPeriph_Driver\src\stm32f10x_rcc.c 0x00000000   Number         0  stm32f10x_rcc.o ABSOLUTE
    ..\Libraries\STM32F10x_StdPeriph_Driver\src\stm32f10x_rtc.c 0x00000000   Number         0  stm32f10x_rtc.o ABSOLUTE
    ..\Libraries\STM32F10x_StdPeriph_Driver\src\stm32f10x_sdio.c 0x00000000   Number         0  stm32f10x_sdio.o ABSOLUTE
    ..\Libraries\STM32F10x_StdPeriph_Driver\src\stm32f10x_spi.c 0x00000000   Number         0  stm32f10x_spi.o ABSOLUTE
    ..\Libraries\STM32F10x_StdPeriph_Driver\src\stm32f10x_tim.c 0x00000000   Number         0  stm32f10x_tim.o ABSOLUTE
    ..\Libraries\STM32F10x_StdPeriph_Driver\src\stm32f10x_usart.c 0x00000000   Number         0  stm32f10x_usart.o ABSOLUTE
    ..\Libraries\STM32F10x_StdPeriph_Driver\src\stm32f10x_wwdg.c 0x00000000   Number         0  stm32f10x_wwdg.o ABSOLUTE
    ..\Libraries\STM32_ETH_Driver\src\stm32_eth.c 0x00000000   Number         0  stm32_eth.o ABSOLUTE
    ..\USER\GLCD\AsciiLib.c                  0x00000000   Number         0  asciilib.o ABSOLUTE
    ..\USER\GLCD\GLCD.c                      0x00000000   Number         0  glcd.o ABSOLUTE
    ..\USER\GLCD\HzLib.c                     0x00000000   Number         0  hzlib.o ABSOLUTE
    ..\USER\i2c_fram.c                       0x00000000   Number         0  i2c_fram.o ABSOLUTE
    ..\USER\main.c                           0x00000000   Number         0  main.o ABSOLUTE
    ..\USER\ssnp\TBC.c                       0x00000000   Number         0  tbc.o ABSOLUTE
    ..\USER\ssnp\TBIM.c                      0x00000000   Number         0  tbim.o ABSOLUTE
    ..\USER\ssnp\TBIMDriver.c                0x00000000   Number         0  tbimdriver.o ABSOLUTE
    ..\USER\ssnp\TEDS.c                      0x00000000   Number         0  teds.o ABSOLUTE
    ..\USER\ssnp\alias_map.c                 0x00000000   Number         0  alias_map.o ABSOLUTE
    ..\USER\ssnp\alias_state.c               0x00000000   Number         0  alias_state.o ABSOLUTE
    ..\USER\ssnp\api_lib.c                   0x00000000   Number         0  api_lib.o ABSOLUTE
    ..\USER\ssnp\api_msg.c                   0x00000000   Number         0  api_msg.o ABSOLUTE
    ..\USER\ssnp\dp.c                        0x00000000   Number         0  dp.o ABSOLUTE
    ..\USER\ssnp\ethbcp.c                    0x00000000   Number         0  ethbcp.o ABSOLUTE
    ..\USER\ssnp\ethernetif.c                0x00000000   Number         0  ethernetif.o ABSOLUTE
    ..\USER\ssnp\inet_chksum.c               0x00000000   Number         0  inet_chksum.o ABSOLUTE
    ..\USER\ssnp\init.c                      0x00000000   Number         0  init.o ABSOLUTE
    ..\USER\ssnp\mem.c                       0x00000000   Number         0  mem.o ABSOLUTE
    ..\USER\ssnp\memp.c                      0x00000000   Number         0  memp.o ABSOLUTE
    ..\USER\ssnp\netbuf.c                    0x00000000   Number         0  netbuf.o ABSOLUTE
    ..\USER\ssnp\netif.c                     0x00000000   Number         0  netif.o ABSOLUTE
    ..\USER\ssnp\pbuf.c                      0x00000000   Number         0  pbuf.o ABSOLUTE
    ..\USER\ssnp\sdp.c                       0x00000000   Number         0  sdp.o ABSOLUTE
    ..\USER\ssnp\ssnp.c                      0x00000000   Number         0  ssnp.o ABSOLUTE
    ..\USER\ssnp\ssnp_for_app.c              0x00000000   Number         0  ssnp_for_app.o ABSOLUTE
    ..\USER\ssnp\sys_arch.c                  0x00000000   Number         0  sys_arch.o ABSOLUTE
    ..\USER\ssnp\timer.c                     0x00000000   Number         0  timer.o ABSOLUTE
    ..\USER\ssnp\tp.c                        0x00000000   Number         0  tp.o ABSOLUTE
    ..\USER\stm32f10x_it.c                   0x00000000   Number         0  stm32f10x_it.o ABSOLUTE
    ..\USER\system_stm32f10x.c               0x00000000   Number         0  system_stm32f10x.o ABSOLUTE
    ..\USER\uC-CPU\ARM-Cortex-M3\RealView\cpu_a.asm 0x00000000   Number         0  cpu_a.o ABSOLUTE
    ..\USER\uC-CPU\ARM-Cortex-M3\RealView\cpu_c.c 0x00000000   Number         0  cpu_c.o ABSOLUTE
    ..\USER\uC-LIB\Ports\RealView\lib_mem_a.asm 0x00000000   Number         0  lib_mem_a.o ABSOLUTE
    ..\USER\uC-LIB\lib_mem.c                 0x00000000   Number         0  lib_mem.o ABSOLUTE
    ..\USER\uC-LIB\lib_str.c                 0x00000000   Number         0  lib_str.o ABSOLUTE
    ..\USER\uCOS-II\Ports\ARM-Cortex-M3\RealView\os_cpu_a.asm 0x00000000   Number         0  os_cpu_a.o ABSOLUTE
    ..\USER\uCOS-II\Ports\ARM-Cortex-M3\RealView\os_cpu_c.c 0x00000000   Number         0  os_cpu_c.o ABSOLUTE
    ..\USER\uCOS-II\Ports\ARM-Cortex-M3\RealView\os_dbg.c 0x00000000   Number         0  os_dbg.o ABSOLUTE
    ..\USER\uCOS-II\Source\os_core.c         0x00000000   Number         0  os_core.o ABSOLUTE
    ..\USER\uCOS-II\Source\os_flag.c         0x00000000   Number         0  os_flag.o ABSOLUTE
    ..\USER\uCOS-II\Source\os_mbox.c         0x00000000   Number         0  os_mbox.o ABSOLUTE
    ..\USER\uCOS-II\Source\os_mem.c          0x00000000   Number         0  os_mem.o ABSOLUTE
    ..\USER\uCOS-II\Source\os_mutex.c        0x00000000   Number         0  os_mutex.o ABSOLUTE
    ..\USER\uCOS-II\Source\os_q.c            0x00000000   Number         0  os_q.o ABSOLUTE
    ..\USER\uCOS-II\Source\os_sem.c          0x00000000   Number         0  os_sem.o ABSOLUTE
    ..\USER\uCOS-II\Source\os_task.c         0x00000000   Number         0  os_task.o ABSOLUTE
    ..\USER\uCOS-II\Source\os_time.c         0x00000000   Number         0  os_time.o ABSOLUTE
    ..\USER\uCOS-II\Source\os_tmr.c          0x00000000   Number         0  os_tmr.o ABSOLUTE
    ..\USER\uCOS-VIEW\Ports\ARM-Cortex-M3\Realview\os_viewc.c 0x00000000   Number         0  os_viewc.o ABSOLUTE
    ..\USER\uCOS-VIEW\Source\os_view.c       0x00000000   Number         0  os_view.o ABSOLUTE
    ..\USER\ucCos_App\OS_AppHooks.c          0x00000000   Number         0  os_apphooks.o ABSOLUTE
    ..\USER\ucCos_App\uctsk_OSView.c         0x00000000   Number         0  uctsk_osview.o ABSOLUTE
    ..\USER\ucCos_App\uctsk_SSNP_TBC.c       0x00000000   Number         0  uctsk_ssnp_tbc.o ABSOLUTE
    ..\USER\ucCos_App\uctsk_SSNP_TBIM.c      0x00000000   Number         0  uctsk_ssnp_tbim.o ABSOLUTE
    ..\USER\ucCos_App\upcomputer.c           0x00000000   Number         0  upcomputer.o ABSOLUTE
    ..\\Libraries\\CMSIS\\CM3\\CoreSupport\\core_cm3.c 0x00000000   Number         0  core_cm3.o ABSOLUTE
    cdcmple.s                                0x00000000   Number         0  cdcmple.o ABSOLUTE
    cdrcmple.s                               0x00000000   Number         0  cdrcmple.o ABSOLUTE
    dc.s                                     0x00000000   Number         0  dc.o ABSOLUTE
    handlers.s                               0x00000000   Number         0  handlers.o ABSOLUTE
    init.s                                   0x00000000   Number         0  init.o ABSOLUTE
    RESET                                    0x08000000   Section      336  startup_stm32f10x_cl.o(RESET)
    .ARM.Collect$$$$00000000                 0x08000150   Section        0  entry.o(.ARM.Collect$$$$00000000)
    .ARM.Collect$$$$00000001                 0x08000150   Section        4  entry2.o(.ARM.Collect$$$$00000001)
    .ARM.Collect$$$$00000004                 0x08000154   Section        4  entry5.o(.ARM.Collect$$$$00000004)
    .ARM.Collect$$$$00000007                 0x08000158   Section        8  entry7.o(.ARM.Collect$$$$00000007)
    .ARM.Collect$$$$00002712                 0x08000160   Section        4  entry2.o(.ARM.Collect$$$$00002712)
    __lit__00000000                          0x08000160   Data           4  entry2.o(.ARM.Collect$$$$00002712)
    .text                                    0x08000164   Section       36  startup_stm32f10x_cl.o(.text)
    .text                                    0x08000188   Section      164  os_cpu_a.o(.text)
    .text                                    0x0800022c   Section       42  cpu_a.o(.text)
    .text                                    0x08000256   Section        0  memcpya.o(.text)
    .text                                    0x0800027a   Section        0  memseta.o(.text)
    .text                                    0x080002a0   Section        0  uidiv.o(.text)
    .text                                    0x080002cc   Section        0  uldiv.o(.text)
    .text                                    0x08000332   Section        0  depilogue.o(.text)
    .text                                    0x08000332   Section        0  iusefp.o(.text)
    .text                                    0x080003f4   Section        0  dadd.o(.text)
    .text                                    0x0800053e   Section        0  dmul.o(.text)
    .text                                    0x08000620   Section        0  ddiv.o(.text)
    .text                                    0x080006fe   Section        0  dfixul.o(.text)
    .text                                    0x08000730   Section       40  cdrcmple.o(.text)
    .text                                    0x08000758   Section       36  init.o(.text)
    .text                                    0x0800077c   Section        0  llshl.o(.text)
    .text                                    0x0800079a   Section        0  llushr.o(.text)
    .text                                    0x080007ba   Section        0  llsshr.o(.text)
    .text                                    0x080007de   Section        0  __dczerorl2.o(.text)
    i.App_SSNPTaskCreate                     0x0800083c   Section        0  uctsk_ssnp_tbc.o(i.App_SSNPTaskCreate)
    i.App_TCBInitHook                        0x08000858   Section        0  os_apphooks.o(i.App_TCBInitHook)
    i.App_TaskCreate                         0x0800085a   Section        0  main.o(i.App_TaskCreate)
    App_TaskCreate                           0x0800085b   Thumb Code     8  main.o(i.App_TaskCreate)
    i.App_TaskCreateHook                     0x08000862   Section        0  os_apphooks.o(i.App_TaskCreateHook)
    i.App_TaskIdleHook                       0x08000864   Section        0  os_apphooks.o(i.App_TaskIdleHook)
    i.App_TaskStart                          0x08000866   Section        0  main.o(i.App_TaskStart)
    App_TaskStart                            0x08000867   Thumb Code    28  main.o(i.App_TaskStart)
    i.App_TaskStatHook                       0x08000882   Section        0  os_apphooks.o(i.App_TaskStatHook)
    i.App_TaskSwHook                         0x08000884   Section        0  os_apphooks.o(i.App_TaskSwHook)
    i.App_TimeTickHook                       0x08000886   Section        0  os_apphooks.o(i.App_TimeTickHook)
    i.BusFault_Handler                       0x08000888   Section        0  stm32f10x_it.o(i.BusFault_Handler)
    i.DebugMon_Handler                       0x0800088c   Section        0  stm32f10x_it.o(i.DebugMon_Handler)
    i.Delay                                  0x0800088e   Section        0  uctsk_ssnp_tbc.o(i.Delay)
    Delay                                    0x0800088f   Thumb Code    18  uctsk_ssnp_tbc.o(i.Delay)
    i.Delay                                  0x080008a0   Section        0  tbc.o(i.Delay)
    Delay                                    0x080008a1   Thumb Code    18  tbc.o(i.Delay)
    i.ETH_DMAClearITPendingBit               0x080008b4   Section        0  stm32_eth.o(i.ETH_DMAClearITPendingBit)
    i.ETH_DMAITConfig                        0x080008c0   Section        0  stm32_eth.o(i.ETH_DMAITConfig)
    i.ETH_DMAReceptionCmd                    0x080008e0   Section        0  stm32_eth.o(i.ETH_DMAReceptionCmd)
    i.ETH_DMARxDescChainInit                 0x08000904   Section        0  stm32_eth.o(i.ETH_DMARxDescChainInit)
    i.ETH_DMARxDescReceiveITConfig           0x08000958   Section        0  stm32_eth.o(i.ETH_DMARxDescReceiveITConfig)
    i.ETH_DMATransmissionCmd                 0x08000970   Section        0  stm32_eth.o(i.ETH_DMATransmissionCmd)
    i.ETH_DMATxDescChainInit                 0x08000994   Section        0  stm32_eth.o(i.ETH_DMATxDescChainInit)
    i.ETH_DeInit                             0x080009e4   Section        0  stm32_eth.o(i.ETH_DeInit)
    i.ETH_Delay                              0x080009fa   Section        0  stm32_eth.o(i.ETH_Delay)
    ETH_Delay                                0x080009fb   Thumb Code    14  stm32_eth.o(i.ETH_Delay)
    i.ETH_FlushTransmitFIFO                  0x08000a08   Section        0  stm32_eth.o(i.ETH_FlushTransmitFIFO)
    i.ETH_GetCurrentTxBuffer                 0x08000a1c   Section        0  ethernetif.o(i.ETH_GetCurrentTxBuffer)
    i.ETH_GetDMARxDescFrameLength            0x08000a28   Section        0  stm32_eth.o(i.ETH_GetDMARxDescFrameLength)
    i.ETH_GetRxPktSize                       0x08000a34   Section        0  stm32_eth.o(i.ETH_GetRxPktSize)
    i.ETH_GetSoftwareResetStatus             0x08000a7c   Section        0  stm32_eth.o(i.ETH_GetSoftwareResetStatus)
    i.ETH_IRQHandler                         0x08000a94   Section        0  ssnp_for_app.o(i.ETH_IRQHandler)
    i.ETH_Init                               0x08000ad8   Section        0  stm32_eth.o(i.ETH_Init)
    i.ETH_MACAddressConfig                   0x08000d24   Section        0  stm32_eth.o(i.ETH_MACAddressConfig)
    i.ETH_MACReceptionCmd                    0x08000d58   Section        0  stm32_eth.o(i.ETH_MACReceptionCmd)
    i.ETH_MACTransmissionCmd                 0x08000d7c   Section        0  stm32_eth.o(i.ETH_MACTransmissionCmd)
    i.ETH_ReadPHYRegister                    0x08000da0   Section        0  stm32_eth.o(i.ETH_ReadPHYRegister)
    i.ETH_RxPkt_ChainMode                    0x08000e00   Section        0  ethernetif.o(i.ETH_RxPkt_ChainMode)
    i.ETH_SoftwareReset                      0x08000e9c   Section        0  stm32_eth.o(i.ETH_SoftwareReset)
    i.ETH_Start                              0x08000eb0   Section        0  stm32_eth.o(i.ETH_Start)
    i.ETH_StructInit                         0x08000ed0   Section        0  stm32_eth.o(i.ETH_StructInit)
    i.ETH_TxPkt_ChainMode                    0x08000f74   Section        0  ethernetif.o(i.ETH_TxPkt_ChainMode)
    i.ETH_WritePHYRegister                   0x08000fdc   Section        0  stm32_eth.o(i.ETH_WritePHYRegister)
    i.Ethernet_Configuration                 0x0800103c   Section        0  ssnp_for_app.o(i.Ethernet_Configuration)
    Ethernet_Configuration                   0x0800103d   Thumb Code   156  ssnp_for_app.o(i.Ethernet_Configuration)
    i.GPIO_ETH_MediaInterfaceConfig          0x080010dc   Section        0  stm32f10x_gpio.o(i.GPIO_ETH_MediaInterfaceConfig)
    i.GPIO_Init                              0x080010e8   Section        0  stm32f10x_gpio.o(i.GPIO_Init)
    i.GPIO_PinRemapConfig                    0x080011fc   Section        0  stm32f10x_gpio.o(i.GPIO_PinRemapConfig)
    i.HardFault_Handler                      0x0800128c   Section        0  stm32f10x_it.o(i.HardFault_Handler)
    i.I2C_Ack                                0x08001290   Section        0  i2c_fram.o(i.I2C_Ack)
    i.I2C_BufferWrite                        0x080012cc   Section        0  i2c_fram.o(i.I2C_BufferWrite)
    i.I2C_FRAM_BufferRead                    0x080013f8   Section        0  i2c_fram.o(i.I2C_FRAM_BufferRead)
    i.I2C_Fram_PageWrite                     0x080014a0   Section        0  i2c_fram.o(i.I2C_Fram_PageWrite)
    i.I2C_NoAck                              0x080014f4   Section        0  i2c_fram.o(i.I2C_NoAck)
    i.I2C_ReceiveByte                        0x08001530   Section        0  i2c_fram.o(i.I2C_ReceiveByte)
    i.I2C_SendByte                           0x0800158c   Section        0  i2c_fram.o(i.I2C_SendByte)
    i.I2C_Start                              0x080015e0   Section        0  i2c_fram.o(i.I2C_Start)
    i.I2C_Stop                               0x08001644   Section        0  i2c_fram.o(i.I2C_Stop)
    i.I2C_WaitAck                            0x08001680   Section        0  i2c_fram.o(i.I2C_WaitAck)
    i.I2C_delay                              0x080016d4   Section        0  i2c_fram.o(i.I2C_delay)
    i.InitiateDiscovery                      0x080016f4   Section        0  ethbcp.o(i.InitiateDiscovery)
    i.MemManage_Handler                      0x080017ac   Section        0  stm32f10x_it.o(i.MemManage_Handler)
    i.NMI_Handler                            0x080017b0   Section        0  stm32f10x_it.o(i.NMI_Handler)
    i.NVIC_Configuration                     0x080017b2   Section        0  ssnp_for_app.o(i.NVIC_Configuration)
    NVIC_Configuration                       0x080017b3   Thumb Code    38  ssnp_for_app.o(i.NVIC_Configuration)
    i.NVIC_Configuration_TIM5                0x080017d8   Section        0  uctsk_ssnp_tbc.o(i.NVIC_Configuration_TIM5)
    NVIC_Configuration_TIM5                  0x080017d9   Thumb Code    38  uctsk_ssnp_tbc.o(i.NVIC_Configuration_TIM5)
    i.NVIC_Configuration_USART2              0x080017fe   Section        0  ssnp_for_app.o(i.NVIC_Configuration_USART2)
    NVIC_Configuration_USART2                0x080017ff   Thumb Code    40  ssnp_for_app.o(i.NVIC_Configuration_USART2)
    i.NVIC_Init                              0x08001828   Section        0  misc.o(i.NVIC_Init)
    i.NVIC_PriorityGroupConfig               0x080018ac   Section        0  misc.o(i.NVIC_PriorityGroupConfig)
    i.OSDebugInit                            0x080018c0   Section        0  os_dbg.o(i.OSDebugInit)
    i.OSEventNameSet                         0x08001a1c   Section        0  os_core.o(i.OSEventNameSet)
    i.OSInit                                 0x08001a84   Section        0  os_core.o(i.OSInit)
    i.OSInitHookBegin                        0x08001abc   Section        0  os_cpu_c.o(i.OSInitHookBegin)
    i.OSInitHookEnd                          0x08001ac8   Section        0  os_cpu_c.o(i.OSInitHookEnd)
    i.OSIntExit                              0x08001acc   Section        0  os_core.o(i.OSIntExit)
    i.OSMemCreate                            0x08001b5c   Section        0  os_mem.o(i.OSMemCreate)
    i.OSMemGet                               0x08001c04   Section        0  os_mem.o(i.OSMemGet)
    i.OSMemPut                               0x08001c4c   Section        0  os_mem.o(i.OSMemPut)
    i.OSQAccept                              0x08001c8e   Section        0  os_q.o(i.OSQAccept)
    i.OSQCreate                              0x08001cf0   Section        0  os_q.o(i.OSQCreate)
    i.OSQDel                                 0x08001d90   Section        0  os_q.o(i.OSQDel)
    i.OSQFlush                               0x08001ea0   Section        0  os_q.o(i.OSQFlush)
    i.OSQPend                                0x08001ed4   Section        0  os_q.o(i.OSQPend)
    i.OSQPost                                0x08002000   Section        0  os_q.o(i.OSQPost)
    i.OSSchedLock                            0x08002078   Section        0  os_core.o(i.OSSchedLock)
    i.OSSchedUnlock                          0x080020b8   Section        0  os_core.o(i.OSSchedUnlock)
    i.OSSemCreate                            0x08002118   Section        0  os_sem.o(i.OSSemCreate)
    i.OSSemDel                               0x0800216c   Section        0  os_sem.o(i.OSSemDel)
    i.OSSemPend                              0x08002254   Section        0  os_sem.o(i.OSSemPend)
    i.OSSemPost                              0x0800234c   Section        0  os_sem.o(i.OSSemPost)
    i.OSStart                                0x080023ac   Section        0  os_core.o(i.OSStart)
    i.OSStatInit                             0x080023f4   Section        0  os_core.o(i.OSStatInit)
    i.OSTCBInitHook                          0x08002440   Section        0  os_cpu_c.o(i.OSTCBInitHook)
    i.OSTaskCreate                           0x0800244c   Section        0  os_task.o(i.OSTaskCreate)
    i.OSTaskCreateExt                        0x080024f4   Section        0  os_task.o(i.OSTaskCreateExt)
    i.OSTaskCreateHook                       0x080025b4   Section        0  os_cpu_c.o(i.OSTaskCreateHook)
    i.OSTaskIdleHook                         0x080025c0   Section        0  os_cpu_c.o(i.OSTaskIdleHook)
    i.OSTaskNameSet                          0x080025c8   Section        0  os_task.o(i.OSTaskNameSet)
    i.OSTaskStatHook                         0x0800264c   Section        0  os_cpu_c.o(i.OSTaskStatHook)
    i.OSTaskStkChk                           0x08002654   Section        0  os_task.o(i.OSTaskStkChk)
    i.OSTaskStkInit                          0x080026f4   Section        0  os_cpu_c.o(i.OSTaskStkInit)
    i.OSTaskSuspend                          0x08002790   Section        0  os_task.o(i.OSTaskSuspend)
    i.OSTaskSwHook                           0x08002854   Section        0  os_cpu_c.o(i.OSTaskSwHook)
    i.OSTimeDly                              0x0800285c   Section        0  os_time.o(i.OSTimeDly)
    i.OSTimeDlyHMSM                          0x080028dc   Section        0  os_time.o(i.OSTimeDlyHMSM)
    i.OSTimeGet                              0x08002960   Section        0  os_time.o(i.OSTimeGet)
    i.OSTimeTick                             0x0800297c   Section        0  os_core.o(i.OSTimeTick)
    i.OSTimeTickHook                         0x08002a70   Section        0  os_cpu_c.o(i.OSTimeTickHook)
    i.OSTmrSignal                            0x08002a98   Section        0  os_tmr.o(i.OSTmrSignal)
    i.OSTmr_Init                             0x08002aac   Section        0  os_tmr.o(i.OSTmr_Init)
    i.OSTmr_InitTask                         0x08002ba0   Section        0  os_tmr.o(i.OSTmr_InitTask)
    OSTmr_InitTask                           0x08002ba1   Thumb Code    54  os_tmr.o(i.OSTmr_InitTask)
    i.OSTmr_Link                             0x08002bf0   Section        0  os_tmr.o(i.OSTmr_Link)
    OSTmr_Link                               0x08002bf1   Thumb Code   100  os_tmr.o(i.OSTmr_Link)
    i.OSTmr_Task                             0x08002c5c   Section        0  os_tmr.o(i.OSTmr_Task)
    OSTmr_Task                               0x08002c5d   Thumb Code   116  os_tmr.o(i.OSTmr_Task)
    i.OSTmr_Unlink                           0x08002cdc   Section        0  os_tmr.o(i.OSTmr_Unlink)
    OSTmr_Unlink                             0x08002cdd   Thumb Code    62  os_tmr.o(i.OSTmr_Unlink)
    i.OS_CPU_SysTickInit                     0x08002d20   Section        0  os_cpu_c.o(i.OS_CPU_SysTickInit)
    i.OS_EventTaskRdy                        0x08002d84   Section        0  os_core.o(i.OS_EventTaskRdy)
    i.OS_EventTaskRemove                     0x08002e20   Section        0  os_core.o(i.OS_EventTaskRemove)
    i.OS_EventTaskRemoveMulti                0x08002e52   Section        0  os_core.o(i.OS_EventTaskRemoveMulti)
    i.OS_EventTaskWait                       0x08002ea4   Section        0  os_core.o(i.OS_EventTaskWait)
    i.OS_EventWaitListInit                   0x08002f28   Section        0  os_core.o(i.OS_EventWaitListInit)
    i.OS_FlagInit                            0x08002f44   Section        0  os_flag.o(i.OS_FlagInit)
    i.OS_InitEventList                       0x08002f9c   Section        0  os_core.o(i.OS_InitEventList)
    OS_InitEventList                         0x08002f9d   Thumb Code    84  os_core.o(i.OS_InitEventList)
    i.OS_InitMisc                            0x08002ffc   Section        0  os_core.o(i.OS_InitMisc)
    OS_InitMisc                              0x08002ffd   Thumb Code    44  os_core.o(i.OS_InitMisc)
    i.OS_InitRdyList                         0x08003050   Section        0  os_core.o(i.OS_InitRdyList)
    OS_InitRdyList                           0x08003051   Thumb Code    44  os_core.o(i.OS_InitRdyList)
    i.OS_InitTCBList                         0x08003094   Section        0  os_core.o(i.OS_InitTCBList)
    OS_InitTCBList                           0x08003095   Thumb Code   106  os_core.o(i.OS_InitTCBList)
    i.OS_InitTaskIdle                        0x08003114   Section        0  os_core.o(i.OS_InitTaskIdle)
    OS_InitTaskIdle                          0x08003115   Thumb Code    54  os_core.o(i.OS_InitTaskIdle)
    i.OS_InitTaskStat                        0x08003164   Section        0  os_core.o(i.OS_InitTaskStat)
    OS_InitTaskStat                          0x08003165   Thumb Code    54  os_core.o(i.OS_InitTaskStat)
    i.OS_MemClr                              0x080031b4   Section        0  os_core.o(i.OS_MemClr)
    i.OS_MemInit                             0x080031c8   Section        0  os_mem.o(i.OS_MemInit)
    i.OS_QInit                               0x08003220   Section        0  os_q.o(i.OS_QInit)
    i.OS_Sched                               0x08003270   Section        0  os_core.o(i.OS_Sched)
    i.OS_SchedNew                            0x080032e4   Section        0  os_core.o(i.OS_SchedNew)
    OS_SchedNew                              0x080032e5   Thumb Code    26  os_core.o(i.OS_SchedNew)
    i.OS_TCBInit                             0x08003310   Section        0  os_core.o(i.OS_TCBInit)
    i.OS_TaskIdle                            0x08003454   Section        0  os_core.o(i.OS_TaskIdle)
    i.OS_TaskStat                            0x0800347c   Section        0  os_core.o(i.OS_TaskStat)
    i.OS_TaskStatStkChk                      0x08003504   Section        0  os_core.o(i.OS_TaskStatStkChk)
    i.OS_TaskStkClr                          0x08003540   Section        0  os_task.o(i.OS_TaskStkClr)
    i.RCC_AHBPeriphClockCmd                  0x0800355c   Section        0  stm32f10x_rcc.o(i.RCC_AHBPeriphClockCmd)
    i.RCC_AHBPeriphResetCmd                  0x0800357c   Section        0  stm32f10x_rcc.o(i.RCC_AHBPeriphResetCmd)
    i.RCC_APB1PeriphClockCmd                 0x0800359c   Section        0  stm32f10x_rcc.o(i.RCC_APB1PeriphClockCmd)
    i.RCC_APB2PeriphClockCmd                 0x080035bc   Section        0  stm32f10x_rcc.o(i.RCC_APB2PeriphClockCmd)
    i.RCC_GetClocksFreq                      0x080035dc   Section        0  stm32f10x_rcc.o(i.RCC_GetClocksFreq)
    i.RCC_GetFlagStatus                      0x0800376c   Section        0  stm32f10x_rcc.o(i.RCC_GetFlagStatus)
    i.RCC_MCOConfig                          0x080037a8   Section        0  stm32f10x_rcc.o(i.RCC_MCOConfig)
    i.RCC_PLL3Cmd                            0x080037b4   Section        0  stm32f10x_rcc.o(i.RCC_PLL3Cmd)
    i.RCC_PLL3Config                         0x080037c0   Section        0  stm32f10x_rcc.o(i.RCC_PLL3Config)
    i.SVC_Handler                            0x080037d8   Section        0  stm32f10x_it.o(i.SVC_Handler)
    i.SetSysClock                            0x080037da   Section        0  system_stm32f10x.o(i.SetSysClock)
    SetSysClock                              0x080037db   Thumb Code     8  system_stm32f10x.o(i.SetSysClock)
    i.SetSysClockTo72                        0x080037e4   Section        0  system_stm32f10x.o(i.SetSysClockTo72)
    SetSysClockTo72                          0x080037e5   Thumb Code   240  system_stm32f10x.o(i.SetSysClockTo72)
    i.SysTick_Handler                        0x080038e4   Section        0  stm32f10x_it.o(i.SysTick_Handler)
    i.SystemInit                             0x0800390c   Section        0  system_stm32f10x.o(i.SystemInit)
    i.TBC_DLL_init                           0x08003978   Section        0  ethbcp.o(i.TBC_DLL_init)
    i.TBC_init                               0x080039e0   Section        0  tbc.o(i.TBC_init)
    i.TBC_send_cmd_to_tbim                   0x08003a00   Section        0  tbc.o(i.TBC_send_cmd_to_tbim)
    i.TBC_send_noArguCmd_to_tbim             0x08003a24   Section        0  tbc.o(i.TBC_send_noArguCmd_to_tbim)
    i.TBC_send_noArgucmd                     0x08003a48   Section        0  tbc.o(i.TBC_send_noArgucmd)
    i.TBC_send_upcomputer_cmd                0x08003a6a   Section        0  tbc.o(i.TBC_send_upcomputer_cmd)
    i.TBIM_recongnition                      0x08003a82   Section        0  tbc.o(i.TBIM_recongnition)
    i.TIM5_IRQHandler                        0x08003aac   Section        0  uctsk_ssnp_tbc.o(i.TIM5_IRQHandler)
    i.TIM5_Init                              0x08003af0   Section        0  uctsk_ssnp_tbc.o(i.TIM5_Init)
    TIM5_Init                                0x08003af1   Thumb Code    64  uctsk_ssnp_tbc.o(i.TIM5_Init)
    i.TIM_ClearITPendingBit                  0x08003b34   Section        0  stm32f10x_tim.o(i.TIM_ClearITPendingBit)
    i.TIM_Cmd                                0x08003b3a   Section        0  stm32f10x_tim.o(i.TIM_Cmd)
    i.TIM_GetCounter                         0x08003b52   Section        0  stm32f10x_tim.o(i.TIM_GetCounter)
    i.TIM_GetITStatus                        0x08003b58   Section        0  stm32f10x_tim.o(i.TIM_GetITStatus)
    i.TIM_ITConfig                           0x08003b7a   Section        0  stm32f10x_tim.o(i.TIM_ITConfig)
    i.TIM_TimeBaseInit                       0x08003b94   Section        0  stm32f10x_tim.o(i.TIM_TimeBaseInit)
    i.USART1_IRQHandler                      0x08003c38   Section        0  stm32f10x_it.o(i.USART1_IRQHandler)
    i.USART2_IRQHandler                      0x08003c3c   Section        0  ssnp_for_app.o(i.USART2_IRQHandler)
    i.USART_ClearFlag                        0x08003de4   Section        0  stm32f10x_usart.o(i.USART_ClearFlag)
    i.USART_ClearITPendingBit                0x08003df6   Section        0  stm32f10x_usart.o(i.USART_ClearITPendingBit)
    i.USART_Cmd                              0x08003e14   Section        0  stm32f10x_usart.o(i.USART_Cmd)
    i.USART_Configuration                    0x08003e2c   Section        0  ssnp_for_app.o(i.USART_Configuration)
    USART_Configuration                      0x08003e2d   Thumb Code   150  ssnp_for_app.o(i.USART_Configuration)
    i.USART_GetFlagStatus                    0x08003ecc   Section        0  stm32f10x_usart.o(i.USART_GetFlagStatus)
    i.USART_GetITStatus                      0x08003ee6   Section        0  stm32f10x_usart.o(i.USART_GetITStatus)
    i.USART_ITConfig                         0x08003f3a   Section        0  stm32f10x_usart.o(i.USART_ITConfig)
    i.USART_Init                             0x08003f84   Section        0  stm32f10x_usart.o(i.USART_Init)
    i.USART_ReceiveData                      0x0800405c   Section        0  stm32f10x_usart.o(i.USART_ReceiveData)
    i.USART_SendData                         0x08004066   Section        0  stm32f10x_usart.o(i.USART_SendData)
    i.UsageFault_Handler                     0x0800406e   Section        0  stm32f10x_it.o(i.UsageFault_Handler)
    i.__0printf                              0x08004074   Section        0  printfa.o(i.__0printf)
    i.__scatterload_copy                     0x08004094   Section       14  handlers.o(i.__scatterload_copy)
    i.__scatterload_null                     0x080040a2   Section        2  handlers.o(i.__scatterload_null)
    i.__scatterload_zeroinit                 0x080040a4   Section       14  handlers.o(i.__scatterload_zeroinit)
    i._fp_digits                             0x080040b4   Section        0  printfa.o(i._fp_digits)
    _fp_digits                               0x080040b5   Thumb Code   318  printfa.o(i._fp_digits)
    i._printf_core                           0x08004208   Section        0  printfa.o(i._printf_core)
    _printf_core                             0x08004209   Thumb Code  1734  printfa.o(i._printf_core)
    i._printf_post_padding                   0x080048dc   Section        0  printfa.o(i._printf_post_padding)
    _printf_post_padding                     0x080048dd   Thumb Code    38  printfa.o(i._printf_post_padding)
    i._printf_pre_padding                    0x08004902   Section        0  printfa.o(i._printf_pre_padding)
    _printf_pre_padding                      0x08004903   Thumb Code    46  printfa.o(i._printf_pre_padding)
    i.add_alias_pending                      0x08004930   Section        0  alias_state.o(i.add_alias_pending)
    i.add_pad_pbuf                           0x0800498c   Section        0  dp.o(i.add_pad_pbuf)
    add_pad_pbuf                             0x0800498d   Thumb Code    70  dp.o(i.add_pad_pbuf)
    i.add_pad_pbuf                           0x080049fc   Section        0  sdp.o(i.add_pad_pbuf)
    add_pad_pbuf                             0x080049fd   Thumb Code    70  sdp.o(i.add_pad_pbuf)
    i.addr_check                             0x08004a6c   Section        0  dp.o(i.addr_check)
    addr_check                               0x08004a6d   Thumb Code     6  dp.o(i.addr_check)
    i.addr_check                             0x08004a72   Section        0  sdp.o(i.addr_check)
    addr_check                               0x08004a73   Thumb Code     6  sdp.o(i.addr_check)
    i.alias_alloc_finish                     0x08004a78   Section        0  timer.o(i.alias_alloc_finish)
    alias_alloc_finish                       0x08004a79   Thumb Code    10  timer.o(i.alias_alloc_finish)
    i.alias_check_timer                      0x08004a84   Section        0  timer.o(i.alias_check_timer)
    i.alias_done                             0x08004aa8   Section        0  alias_state.o(i.alias_done)
    i.alloc_alias_map                        0x08004b70   Section        0  alias_map.o(i.alloc_alias_map)
    i.app_init                               0x08004bc0   Section        0  uctsk_ssnp_tbc.o(i.app_init)
    app_init                                 0x08004bc1   Thumb Code    90  uctsk_ssnp_tbc.o(i.app_init)
    i.clear_unresponsive_alias               0x08004cc8   Section        0  alias_state.o(i.clear_unresponsive_alias)
    i.copy_uuid                              0x08004d10   Section        0  alias_state.o(i.copy_uuid)
    copy_uuid                                0x08004d11   Thumb Code    20  alias_state.o(i.copy_uuid)
    i.create_TBIM                            0x08004d24   Section        0  tbc.o(i.create_TBIM)
    create_TBIM                              0x08004d25   Thumb Code   284  tbc.o(i.create_TBIM)
    i.deQueue                                0x08004f5c   Section        0  upcomputer.o(i.deQueue)
    i.del_alias_map                          0x08004fb8   Section        0  alias_map.o(i.del_alias_map)
    i.delete_alias                           0x08004fe8   Section        0  alias_state.o(i.delete_alias)
    delete_alias                             0x08004fe9   Thumb Code    86  alias_state.o(i.delete_alias)
    i.do_bind                                0x08005044   Section        0  api_msg.o(i.do_bind)
    i.do_connect                             0x080050b6   Section        0  api_msg.o(i.do_connect)
    i.do_get_alias_alloc_state               0x0800511a   Section        0  api_msg.o(i.do_get_alias_alloc_state)
    i.do_newconn                             0x08005132   Section        0  api_msg.o(i.do_newconn)
    i.do_send                                0x08005150   Section        0  api_msg.o(i.do_send)
    i.dp_bind                                0x08005214   Section        0  dp.o(i.dp_bind)
    i.dp_connect                             0x0800524c   Section        0  dp.o(i.dp_connect)
    i.dp_input                               0x08005284   Section        0  dp.o(i.dp_input)
    i.dp_new                                 0x08005668   Section        0  dp.o(i.dp_new)
    i.dp_recv                                0x08005680   Section        0  dp.o(i.dp_recv)
    i.dp_sendto                              0x08005686   Section        0  dp.o(i.dp_sendto)
    i.dp_sendto_if                           0x080056b4   Section        0  dp.o(i.dp_sendto_if)
    i.ethbcp_FCS_check                       0x08005868   Section        0  ethbcp.o(i.ethbcp_FCS_check)
    ethbcp_FCS_check                         0x08005869   Thumb Code     4  ethbcp.o(i.ethbcp_FCS_check)
    i.ethbcp_input                           0x0800586c   Section        0  ethbcp.o(i.ethbcp_input)
    ethbcp_input                             0x0800586d   Thumb Code   250  ethbcp.o(i.ethbcp_input)
    i.ethbcp_input_check                     0x08005a74   Section        0  ethbcp.o(i.ethbcp_input_check)
    ethbcp_input_check                       0x08005a75   Thumb Code    48  ethbcp.o(i.ethbcp_input_check)
    i.ethbcp_output                          0x08005ad0   Section        0  ethbcp.o(i.ethbcp_output)
    i.ethernet_initialize                    0x08005b90   Section        0  ssnp_for_app.o(i.ethernet_initialize)
    ethernet_initialize                      0x08005b91   Thumb Code   282  ssnp_for_app.o(i.ethernet_initialize)
    i.ethernet_input                         0x08005cbc   Section        0  ethbcp.o(i.ethernet_input)
    i.ethernetif_init                        0x08005e78   Section        0  ethernetif.o(i.ethernetif_init)
    i.ethernetif_input                       0x08005ef0   Section        0  ethernetif.o(i.ethernetif_input)
    i.find                                   0x08005f58   Section        0  alias_state.o(i.find)
    find                                     0x08005f59   Thumb Code    28  alias_state.o(i.find)
    i.find_tbim                              0x08005f78   Section        0  tbc.o(i.find_tbim)
    i.fputc                                  0x08005fb0   Section        0  uctsk_ssnp_tbc.o(i.fputc)
    i.get_TBIM_meta_TEDS                     0x08005fd4   Section        0  tbc.o(i.get_TBIM_meta_TEDS)
    get_TBIM_meta_TEDS                       0x08005fd5   Thumb Code   198  tbc.o(i.get_TBIM_meta_TEDS)
    i.get_TBIM_struct                        0x0800609c   Section        0  tbc.o(i.get_TBIM_struct)
    get_TBIM_struct                          0x0800609d   Thumb Code    92  tbc.o(i.get_TBIM_struct)
    i.get_TBIM_tdcn_TEDS                     0x08006130   Section        0  tbc.o(i.get_TBIM_tdcn_TEDS)
    get_TBIM_tdcn_TEDS                       0x08006131   Thumb Code   258  tbc.o(i.get_TBIM_tdcn_TEDS)
    i.get_alias_alloc_state                  0x08006240   Section        0  ethbcp.o(i.get_alias_alloc_state)
    i.get_alias_done_list                    0x0800624c   Section        0  alias_state.o(i.get_alias_done_list)
    i.get_done_list                          0x08006258   Section        0  ethbcp.o(i.get_done_list)
    i.get_epoch                              0x0800628c   Section        0  tbc.o(i.get_epoch)
    i.get_tbim                               0x080063ac   Section        0  api_lib.o(i.get_tbim)
    i.hardware_init                          0x080063d8   Section        0  ssnp_for_app.o(i.hardware_init)
    i.inet_chksum                            0x080063e0   Section        0  inet_chksum.o(i.inet_chksum)
    i.init_queue                             0x080063e8   Section        0  upcomputer.o(i.init_queue)
    i.ip_route                               0x080063f8   Section        0  dp.o(i.ip_route)
    ip_route                                 0x080063f9   Thumb Code    40  dp.o(i.ip_route)
    i.ip_route                               0x08006428   Section        0  tp.o(i.ip_route)
    ip_route                                 0x08006429   Thumb Code    40  tp.o(i.ip_route)
    i.ip_route                               0x08006458   Section        0  sdp.o(i.ip_route)
    ip_route                                 0x08006459   Thumb Code    40  sdp.o(i.ip_route)
    i.isQempty                               0x08006488   Section        0  upcomputer.o(i.isQempty)
    i.is_exist_in_pending_list               0x0800649c   Section        0  alias_state.o(i.is_exist_in_pending_list)
    i.is_reflect_reply_ok                    0x080064b8   Section        0  ethbcp.o(i.is_reflect_reply_ok)
    i.isbroadcast                            0x080064c4   Section        0  dp.o(i.isbroadcast)
    isbroadcast                              0x080064c5   Thumb Code    14  dp.o(i.isbroadcast)
    i.isbroadcast                            0x080064d2   Section        0  tp.o(i.isbroadcast)
    isbroadcast                              0x080064d3   Thumb Code    14  tp.o(i.isbroadcast)
    i.isbroadcast                            0x080064e0   Section        0  sdp.o(i.isbroadcast)
    isbroadcast                              0x080064e1   Thumb Code    14  sdp.o(i.isbroadcast)
    i.low_level_init                         0x080064f0   Section        0  ethernetif.o(i.low_level_init)
    low_level_init                           0x080064f1   Thumb Code    98  ethernetif.o(i.low_level_init)
    i.low_level_input                        0x08006568   Section        0  ethernetif.o(i.low_level_input)
    low_level_input                          0x08006569   Thumb Code    98  ethernetif.o(i.low_level_input)
    i.low_level_output                       0x080065d0   Section        0  ethernetif.o(i.low_level_output)
    low_level_output                         0x080065d1   Thumb Code    66  ethernetif.o(i.low_level_output)
    i.main                                   0x08006614   Section        0  main.o(i.main)
    i.mem_alloc                              0x08006670   Section        0  mem.o(i.mem_alloc)
    i.mem_free                               0x08006778   Section        0  mem.o(i.mem_free)
    i.mem_init                               0x080067d4   Section        0  mem.o(i.mem_init)
    i.mem_trim                               0x0800683c   Section        0  mem.o(i.mem_trim)
    i.memp_alloc                             0x08006948   Section        0  memp.o(i.memp_alloc)
    i.memp_free                              0x08006974   Section        0  memp.o(i.memp_free)
    i.memp_init                              0x080069a8   Section        0  memp.o(i.memp_init)
    i.neconn_recv_data                       0x08006a00   Section        0  api_lib.o(i.neconn_recv_data)
    neconn_recv_data                         0x08006a01   Thumb Code    66  api_lib.o(i.neconn_recv_data)
    i.netbuf_delete                          0x08006a42   Section        0  netbuf.o(i.netbuf_delete)
    i.netbuf_free                            0x08006a60   Section        0  netbuf.o(i.netbuf_free)
    i.netbuf_ref                             0x08006a74   Section        0  netbuf.o(i.netbuf_ref)
    i.netconn_alloc                          0x08006aac   Section        0  api_lib.o(i.netconn_alloc)
    netconn_alloc                            0x08006aad   Thumb Code   118  api_lib.o(i.netconn_alloc)
    i.netconn_bind                           0x08006b7c   Section        0  api_lib.o(i.netconn_bind)
    i.netconn_connect                        0x08006bb4   Section        0  api_lib.o(i.netconn_connect)
    i.netconn_new                            0x08006bec   Section        0  api_lib.o(i.netconn_new)
    i.netconn_recv                           0x08006c2c   Section        0  api_lib.o(i.netconn_recv)
    i.netconn_send                           0x08006c54   Section        0  api_lib.o(i.netconn_send)
    i.netconn_sendto                         0x08006c8c   Section        0  api_lib.o(i.netconn_sendto)
    i.netif_add                              0x08006cb0   Section        0  netif.o(i.netif_add)
    i.netif_init                             0x08006d30   Section        0  netif.o(i.netif_init)
    i.netif_set_default                      0x08006d34   Section        0  netif.o(i.netif_set_default)
    i.pbuf_alloc                             0x08006d40   Section        0  pbuf.o(i.pbuf_alloc)
    i.pbuf_cat                               0x08006ed0   Section        0  pbuf.o(i.pbuf_cat)
    i.pbuf_chain                             0x08006ef4   Section        0  pbuf.o(i.pbuf_chain)
    i.pbuf_free                              0x08006f0a   Section        0  pbuf.o(i.pbuf_free)
    i.pbuf_header                            0x08006f76   Section        0  pbuf.o(i.pbuf_header)
    i.pbuf_realloc                           0x08006fe0   Section        0  pbuf.o(i.pbuf_realloc)
    i.pbuf_ref                               0x08007044   Section        0  pbuf.o(i.pbuf_ref)
    i.pcb_new                                0x08007060   Section        0  api_msg.o(i.pcb_new)
    pcb_new                                  0x08007061   Thumb Code   128  api_msg.o(i.pcb_new)
    i.plug_holes                             0x080070ec   Section        0  mem.o(i.plug_holes)
    plug_holes                               0x080070ed   Thumb Code   108  mem.o(i.plug_holes)
    i.protocol_init                          0x08007164   Section        0  ssnp_for_app.o(i.protocol_init)
    i.protocol_stack_init                    0x080071cc   Section        0  init.o(i.protocol_stack_init)
    i.recv_dp                                0x080071e8   Section        0  api_msg.o(i.recv_dp)
    recv_dp                                  0x080071e9   Thumb Code    88  api_msg.o(i.recv_dp)
    i.recv_sdp                               0x08007240   Section        0  api_msg.o(i.recv_sdp)
    recv_sdp                                 0x08007241   Thumb Code   100  api_msg.o(i.recv_sdp)
    i.recv_tp                                0x080072f4   Section        0  api_msg.o(i.recv_tp)
    recv_tp                                  0x080072f5   Thumb Code    76  api_msg.o(i.recv_tp)
    i.sdp_bind                               0x08007340   Section        0  sdp.o(i.sdp_bind)
    i.sdp_connect                            0x08007378   Section        0  sdp.o(i.sdp_connect)
    i.sdp_input                              0x080073b0   Section        0  sdp.o(i.sdp_input)
    i.sdp_new                                0x080076c4   Section        0  sdp.o(i.sdp_new)
    i.sdp_recv                               0x080076dc   Section        0  sdp.o(i.sdp_recv)
    i.sdp_sendto                             0x080076e2   Section        0  sdp.o(i.sdp_sendto)
    i.sdp_sendto_if                          0x08007710   Section        0  sdp.o(i.sdp_sendto_if)
    i.send_assign_alias_msg                  0x080078dc   Section        0  ethbcp.o(i.send_assign_alias_msg)
    send_assign_alias_msg                    0x080078dd   Thumb Code   162  ethbcp.o(i.send_assign_alias_msg)
    i.send_assign_time_slot_msg              0x080079b0   Section        0  ethbcp.o(i.send_assign_time_slot_msg)
    i.send_begin_of_epoch_msg                0x08007a94   Section        0  ethbcp.o(i.send_begin_of_epoch_msg)
    i.send_cmd_to_tbim                       0x08007b4c   Section        0  tbc.o(i.send_cmd_to_tbim)
    send_cmd_to_tbim                         0x08007b4d   Thumb Code    70  tbc.o(i.send_cmd_to_tbim)
    i.send_define_epoch_msg                  0x08007b94   Section        0  ethbcp.o(i.send_define_epoch_msg)
    i.send_discovery_msg                     0x08007c70   Section        0  ssnp_for_app.o(i.send_discovery_msg)
    i.send_noArguCmd_to_tbim                 0x08007c80   Section        0  tbc.o(i.send_noArguCmd_to_tbim)
    send_noArguCmd_to_tbim                   0x08007c81   Thumb Code    78  tbc.o(i.send_noArguCmd_to_tbim)
    i.send_reflect_msg                       0x08007cd0   Section        0  ethbcp.o(i.send_reflect_msg)
    i.send_sdp_upcomputer                    0x08007d8c   Section        0  upcomputer.o(i.send_sdp_upcomputer)
    i.send_timeslot_msg                      0x08007dc8   Section        0  tbc.o(i.send_timeslot_msg)
    send_timeslot_msg                        0x08007dc9   Thumb Code    82  tbc.o(i.send_timeslot_msg)
    i.send_upcomputer                        0x08007e20   Section        0  upcomputer.o(i.send_upcomputer)
    i.set_alias_alloc_done                   0x08007e50   Section        0  ethbcp.o(i.set_alias_alloc_done)
    i.set_connection_recvmbox                0x08007e5c   Section        0  api_lib.o(i.set_connection_recvmbox)
    i.set_mac_address                        0x08007e68   Section        0  ethernetif.o(i.set_mac_address)
    i.set_reflect_reply_unfinished           0x08007e8c   Section        0  ethbcp.o(i.set_reflect_reply_unfinished)
    i.set_status_word_bad_frame_received     0x08007e98   Section        0  ethbcp.o(i.set_status_word_bad_frame_received)
    set_status_word_bad_frame_received       0x08007e99   Thumb Code     2  ethbcp.o(i.set_status_word_bad_frame_received)
    i.set_status_word_protocol_error         0x08007e9a   Section        0  dp.o(i.set_status_word_protocol_error)
    set_status_word_protocol_error           0x08007e9b   Thumb Code     2  dp.o(i.set_status_word_protocol_error)
    i.set_status_word_protocol_error         0x08007e9c   Section        0  sdp.o(i.set_status_word_protocol_error)
    set_status_word_protocol_error           0x08007e9d   Thumb Code     2  sdp.o(i.set_status_word_protocol_error)
    i.set_syn_asyn_num                       0x08007ea0   Section        0  tbc.o(i.set_syn_asyn_num)
    i.ssnp_apimsg                            0x08007eb0   Section        0  ssnp.o(i.ssnp_apimsg)
    i.ssnp_apimsg_alias_list                 0x08007ee8   Section        0  ssnp.o(i.ssnp_apimsg_alias_list)
    i.ssnp_init                              0x08007f20   Section        0  ssnp.o(i.ssnp_init)
    i.ssnp_init_done                         0x08007f6c   Section        0  ssnp_for_app.o(i.ssnp_init_done)
    ssnp_init_done                           0x08007f6d   Thumb Code    14  ssnp_for_app.o(i.ssnp_init_done)
    i.ssnp_input                             0x08007f7c   Section        0  ssnp.o(i.ssnp_input)
    i.ssnp_thread                            0x08008028   Section        0  ssnp.o(i.ssnp_thread)
    ssnp_thread                              0x08008029   Thumb Code   130  ssnp.o(i.ssnp_thread)
    i.sys_arch_mbox_fetch                    0x080080b8   Section        0  sys_arch.o(i.sys_arch_mbox_fetch)
    i.sys_arch_mbox_fetch_unblock            0x08008144   Section        0  sys_arch.o(i.sys_arch_mbox_fetch_unblock)
    i.sys_arch_sem_wait                      0x08008158   Section        0  sys_arch.o(i.sys_arch_sem_wait)
    i.sys_init                               0x080081c4   Section        0  sys_arch.o(i.sys_init)
    i.sys_mbox_free                          0x080081e8   Section        0  sys_arch.o(i.sys_mbox_free)
    i.sys_mbox_new                           0x08008260   Section        0  sys_arch.o(i.sys_mbox_new)
    i.sys_mbox_post                          0x080082b8   Section        0  sys_arch.o(i.sys_mbox_post)
    i.sys_mbox_trypost                       0x080082e8   Section        0  sys_arch.o(i.sys_mbox_trypost)
    i.sys_sem_free                           0x0800830c   Section        0  sys_arch.o(i.sys_sem_free)
    i.sys_sem_new                            0x0800831c   Section        0  sys_arch.o(i.sys_sem_new)
    i.sys_sem_signal                         0x0800832c   Section        0  sys_arch.o(i.sys_sem_signal)
    i.sys_thread_new                         0x08008338   Section        0  sys_arch.o(i.sys_thread_new)
    i.sys_time_get                           0x080083bc   Section        0  sys_arch.o(i.sys_time_get)
    i.sys_timeout                            0x080083c4   Section        0  timer.o(i.sys_timeout)
    i.sys_timeouts_init                      0x0800845c   Section        0  timer.o(i.sys_timeouts_init)
    i.sys_timeouts_mbox_fetch                0x08008470   Section        0  timer.o(i.sys_timeouts_mbox_fetch)
    i.sys_untimeout                          0x080084fc   Section        0  timer.o(i.sys_untimeout)
    i.tbc_send_begin_of_epoch_msg            0x0800855c   Section        0  ssnp_for_app.o(i.tbc_send_begin_of_epoch_msg)
    i.tbc_send_define_epoch_msg              0x0800856c   Section        0  ssnp_for_app.o(i.tbc_send_define_epoch_msg)
    i.tbc_send_reflect_msg                   0x08008584   Section        0  ssnp_for_app.o(i.tbc_send_reflect_msg)
    i.tbc_send_timeslot_msg                  0x08008598   Section        0  ssnp_for_app.o(i.tbc_send_timeslot_msg)
    i.test                                   0x080085b8   Section        0  alias_map.o(i.test)
    test                                     0x080085b9   Thumb Code    22  alias_map.o(i.test)
    i.timeslot_alloc                         0x080085d4   Section        0  tbc.o(i.timeslot_alloc)
    i.tp_bind                                0x080085dc   Section        0  tp.o(i.tp_bind)
    i.tp_connect                             0x08008624   Section        0  tp.o(i.tp_connect)
    i.tp_input                               0x0800865c   Section        0  tp.o(i.tp_input)
    i.tp_new                                 0x08008888   Section        0  tp.o(i.tp_new)
    i.tp_recv                                0x080088a0   Section        0  tp.o(i.tp_recv)
    i.tp_sendto                              0x080088a6   Section        0  tp.o(i.tp_sendto)
    i.tp_sendto_if                           0x080088d4   Section        0  tp.o(i.tp_sendto_if)
    i.uctsk_SSNP_TBC_new                     0x080089bc   Section        0  uctsk_ssnp_tbc.o(i.uctsk_SSNP_TBC_new)
    uctsk_SSNP_TBC_new                       0x080089bd   Thumb Code   376  uctsk_ssnp_tbc.o(i.uctsk_SSNP_TBC_new)
    i.writeMetaTeds                          0x08008c78   Section        0  ssnp_for_app.o(i.writeMetaTeds)
    .constdata                               0x08008d38   Section      116  os_dbg.o(.constdata)
    .constdata                               0x08008dac   Section      256  os_core.o(.constdata)
    .constdata                               0x08008eac   Section       48  memp.o(.constdata)
    memp_sizes                               0x08008eac   Data          24  memp.o(.constdata)
    memp_num                                 0x08008ec4   Data          24  memp.o(.constdata)
    .constdata                               0x08008edc   Section        4  sys_arch.o(.constdata)
    .constdata                               0x08008ee0   Section       66  sdp.o(.constdata)
    .data                                    0x20000000   Section       30  uctsk_ssnp_tbc.o(.data)
    streaming_data_recv_mbox                 0x2000000c   Data           4  uctsk_ssnp_tbc.o(.data)
    cmd_reply_recv_mbox                      0x20000010   Data           4  uctsk_ssnp_tbc.o(.data)
    .data                                    0x2000001e   Section        1  i2c_fram.o(.data)
    .data                                    0x2000001f   Section       20  stm32f10x_rcc.o(.data)
    APBAHBPrescTable                         0x2000001f   Data          16  stm32f10x_rcc.o(.data)
    ADCPrescTable                            0x2000002f   Data           4  stm32f10x_rcc.o(.data)
    .data                                    0x20000034   Section       16  stm32_eth.o(.data)
    .data                                    0x20000044   Section       20  system_stm32f10x.o(.data)
    .data                                    0x20000058   Section        2  os_cpu_c.o(.data)
    OSTmrCtr                                 0x20000058   Data           2  os_cpu_c.o(.data)
    .data                                    0x2000005c   Section       96  os_core.o(.data)
    .data                                    0x200000bc   Section        4  dp.o(.data)
    dp_pcbs                                  0x200000bc   Data           4  dp.o(.data)
    .data                                    0x200000c0   Section       15  ethbcp.o(.data)
    alias_alloc_done                         0x200000c0   Data           1  ethbcp.o(.data)
    time_slot_msg                            0x200000c4   Data           4  ethbcp.o(.data)
    tbc_dll_state                            0x200000c8   Data           7  ethbcp.o(.data)
    .data                                    0x200000cf   Section       12  ethernetif.o(.data)
    .data                                    0x200000dc   Section       16  mem.o(.data)
    ram                                      0x200000dc   Data           4  mem.o(.data)
    ram_end                                  0x200000e0   Data           4  mem.o(.data)
    ffree                                    0x200000e4   Data           4  mem.o(.data)
    mem_sem                                  0x200000e8   Data           4  mem.o(.data)
    .data                                    0x200000ec   Section        9  netif.o(.data)
    netif_num                                0x200000f4   Data           1  netif.o(.data)
    .data                                    0x200000f8   Section       12  ssnp.o(.data)
    mbox                                     0x200000f8   Data           4  ssnp.o(.data)
    ssnp_init_done                           0x200000fc   Data           4  ssnp.o(.data)
    ssnp_init_done_arg                       0x20000100   Data           4  ssnp.o(.data)
    .data                                    0x20000104   Section        4  sys_arch.o(.data)
    pQueueMem                                0x20000104   Data           4  sys_arch.o(.data)
    .data                                    0x20000108   Section        4  timer.o(.data)
    next_timeout                             0x20000108   Data           4  timer.o(.data)
    .data                                    0x2000010c   Section        4  tp.o(.data)
    tp_pcbs                                  0x2000010c   Data           4  tp.o(.data)
    .data                                    0x20000110   Section       14  ssnp_for_app.o(.data)
    recv_type                                0x20000110   Data           2  ssnp_for_app.o(.data)
    buf_start                                0x20000112   Data           2  ssnp_for_app.o(.data)
    buf_tail                                 0x20000114   Data           2  ssnp_for_app.o(.data)
    .data                                    0x2000011e   Section        6  alias_map.o(.data)
    first_free                               0x2000011e   Data           1  alias_map.o(.data)
    alias_map                                0x2000011f   Data           5  alias_map.o(.data)
    .data                                    0x20000124   Section        8  alias_state.o(.data)
    done_list                                0x20000128   Data           4  alias_state.o(.data)
    .data                                    0x2000012c   Section        4  sdp.o(.data)
    sdp_pcbs                                 0x2000012c   Data           4  sdp.o(.data)
    .data                                    0x20000130   Section        4  stdout.o(.data)
    .bss                                     0x20000134   Section      256  main.o(.bss)
    App_TaskStartStk                         0x20000134   Data         256  main.o(.bss)
    .bss                                     0x20000234   Section     3508  uctsk_ssnp_tbc.o(.bss)
    queue                                    0x20000234   Data          43  uctsk_ssnp_tbc.o(.bss)
    AppSSNPTaskStk                           0x20000260   Data        1024  uctsk_ssnp_tbc.o(.bss)
    .bss                                     0x20000fe8   Section       43  upcomputer.o(.bss)
    queue                                    0x20000fe8   Data          43  upcomputer.o(.bss)
    .bss                                     0x20001014   Section     4312  os_core.o(.bss)
    .bss                                     0x200020ec   Section     9216  ethernetif.o(.bss)
    .bss                                     0x200044ec   Section    10268  mem.o(.bss)
    .bss                                     0x20006d08   Section    15563  memp.o(.bss)
    memp_tab                                 0x20006d08   Data          48  memp.o(.bss)
    memp_memory                              0x20006d38   Data       15515  memp.o(.bss)
    .bss                                     0x2000a9d4   Section    11643  sys_arch.o(.bss)
    pcQueueMemoryPool                        0x2000b7e4   Data        8043  sys_arch.o(.bss)
    .bss                                     0x2000d750   Section      680  ssnp_for_app.o(.bss)
    queue                                    0x2000d750   Data          43  ssnp_for_app.o(.bss)
    netif                                    0x2000d77c   Data          36  ssnp_for_app.o(.bss)
    recv_buf                                 0x2000d7a0   Data         600  ssnp_for_app.o(.bss)
    .bss                                     0x2000d9f8   Section     6720  tbc.o(.bss)
    queue                                    0x2000d9f8   Data          43  tbc.o(.bss)
    STACK                                    0x2000f438   Section     2048  startup_stm32f10x_cl.o(STACK)

    Global Symbols

    Symbol Name                              Value     Ov Type        Size  Object(Section)

    BuildAttributes$$THM_ISAv4$P$D$K$B$S$PE$A:L22UL41UL21$X:L11$S22US41US21$IEEE1$IW$USESV6$~STKCKD$USESV7$~SHL$OTIME$ROPI$IEEEJ$EBA8$MICROLIB$REQ8$PRES8$EABIv2 0x00000000   Number         0  anon$$obj.o ABSOLUTE
    __ARM_use_no_argv                        0x00000000   Number         0  main.o ABSOLUTE
    _printf_a                                0x00000000   Number         0  stubs.o ABSOLUTE
    _printf_c                                0x00000000   Number         0  stubs.o ABSOLUTE
    _printf_charcount                        0x00000000   Number         0  stubs.o ABSOLUTE
    _printf_d                                0x00000000   Number         0  stubs.o ABSOLUTE
    _printf_e                                0x00000000   Number         0  stubs.o ABSOLUTE
    _printf_f                                0x00000000   Number         0  stubs.o ABSOLUTE
    _printf_flags                            0x00000000   Number         0  stubs.o ABSOLUTE
    _printf_fp_dec                           0x00000000   Number         0  stubs.o ABSOLUTE
    _printf_fp_hex                           0x00000000   Number         0  stubs.o ABSOLUTE
    _printf_g                                0x00000000   Number         0  stubs.o ABSOLUTE
    _printf_i                                0x00000000   Number         0  stubs.o ABSOLUTE
    _printf_int_dec                          0x00000000   Number         0  stubs.o ABSOLUTE
    _printf_l                                0x00000000   Number         0  stubs.o ABSOLUTE
    _printf_lc                               0x00000000   Number         0  stubs.o ABSOLUTE
    _printf_ll                               0x00000000   Number         0  stubs.o ABSOLUTE
    _printf_lld                              0x00000000   Number         0  stubs.o ABSOLUTE
    _printf_lli                              0x00000000   Number         0  stubs.o ABSOLUTE
    _printf_llo                              0x00000000   Number         0  stubs.o ABSOLUTE
    _printf_llu                              0x00000000   Number         0  stubs.o ABSOLUTE
    _printf_llx                              0x00000000   Number         0  stubs.o ABSOLUTE
    _printf_longlong_dec                     0x00000000   Number         0  stubs.o ABSOLUTE
    _printf_longlong_hex                     0x00000000   Number         0  stubs.o ABSOLUTE
    _printf_longlong_oct                     0x00000000   Number         0  stubs.o ABSOLUTE
    _printf_ls                               0x00000000   Number         0  stubs.o ABSOLUTE
    _printf_mbtowc                           0x00000000   Number         0  stubs.o ABSOLUTE
    _printf_n                                0x00000000   Number         0  stubs.o ABSOLUTE
    _printf_o                                0x00000000   Number         0  stubs.o ABSOLUTE
    _printf_p                                0x00000000   Number         0  stubs.o ABSOLUTE
    _printf_percent                          0x00000000   Number         0  stubs.o ABSOLUTE
    _printf_pre_padding                      0x00000000   Number         0  stubs.o ABSOLUTE
    _printf_return_value                     0x00000000   Number         0  stubs.o ABSOLUTE
    _printf_s                                0x00000000   Number         0  stubs.o ABSOLUTE
    _printf_sizespec                         0x00000000   Number         0  stubs.o ABSOLUTE
    _printf_str                              0x00000000   Number         0  stubs.o ABSOLUTE
    _printf_truncate_signed                  0x00000000   Number         0  stubs.o ABSOLUTE
    _printf_truncate_unsigned                0x00000000   Number         0  stubs.o ABSOLUTE
    _printf_u                                0x00000000   Number         0  stubs.o ABSOLUTE
    _printf_wc                               0x00000000   Number         0  stubs.o ABSOLUTE
    _printf_wctomb                           0x00000000   Number         0  stubs.o ABSOLUTE
    _printf_widthprec                        0x00000000   Number         0  stubs.o ABSOLUTE
    _printf_x                                0x00000000   Number         0  stubs.o ABSOLUTE
    __Vectors_Size                           0x00000150   Number         0  startup_stm32f10x_cl.o ABSOLUTE
    __Vectors                                0x08000000   Data           4  startup_stm32f10x_cl.o(RESET)
    __Vectors_End                            0x08000150   Data           0  startup_stm32f10x_cl.o(RESET)
    __main                                   0x08000151   Thumb Code     0  entry.o(.ARM.Collect$$$$00000000)
    _main_stk                                0x08000151   Thumb Code     0  entry2.o(.ARM.Collect$$$$00000001)
    _main_scatterload                        0x08000155   Thumb Code     0  entry5.o(.ARM.Collect$$$$00000004)
    __main_after_scatterload                 0x08000159   Thumb Code     0  entry5.o(.ARM.Collect$$$$00000004)
    _main_init                               0x08000159   Thumb Code     0  entry7.o(.ARM.Collect$$$$00000007)
    Reset_Handler                            0x08000165   Thumb Code     8  startup_stm32f10x_cl.o(.text)
    ADC1_2_IRQHandler                        0x0800017f   Thumb Code     0  startup_stm32f10x_cl.o(.text)
    CAN1_RX0_IRQHandler                      0x0800017f   Thumb Code     0  startup_stm32f10x_cl.o(.text)
    CAN1_RX1_IRQHandler                      0x0800017f   Thumb Code     0  startup_stm32f10x_cl.o(.text)
    CAN1_SCE_IRQHandler                      0x0800017f   Thumb Code     0  startup_stm32f10x_cl.o(.text)
    CAN1_TX_IRQHandler                       0x0800017f   Thumb Code     0  startup_stm32f10x_cl.o(.text)
    CAN2_RX0_IRQHandler                      0x0800017f   Thumb Code     0  startup_stm32f10x_cl.o(.text)
    CAN2_RX1_IRQHandler                      0x0800017f   Thumb Code     0  startup_stm32f10x_cl.o(.text)
    CAN2_SCE_IRQHandler                      0x0800017f   Thumb Code     0  startup_stm32f10x_cl.o(.text)
    CAN2_TX_IRQHandler                       0x0800017f   Thumb Code     0  startup_stm32f10x_cl.o(.text)
    DMA1_Channel1_IRQHandler                 0x0800017f   Thumb Code     0  startup_stm32f10x_cl.o(.text)
    DMA1_Channel2_IRQHandler                 0x0800017f   Thumb Code     0  startup_stm32f10x_cl.o(.text)
    DMA1_Channel3_IRQHandler                 0x0800017f   Thumb Code     0  startup_stm32f10x_cl.o(.text)
    DMA1_Channel4_IRQHandler                 0x0800017f   Thumb Code     0  startup_stm32f10x_cl.o(.text)
    DMA1_Channel5_IRQHandler                 0x0800017f   Thumb Code     0  startup_stm32f10x_cl.o(.text)
    DMA1_Channel6_IRQHandler                 0x0800017f   Thumb Code     0  startup_stm32f10x_cl.o(.text)
    DMA1_Channel7_IRQHandler                 0x0800017f   Thumb Code     0  startup_stm32f10x_cl.o(.text)
    DMA2_Channel1_IRQHandler                 0x0800017f   Thumb Code     0  startup_stm32f10x_cl.o(.text)
    DMA2_Channel2_IRQHandler                 0x0800017f   Thumb Code     0  startup_stm32f10x_cl.o(.text)
    DMA2_Channel3_IRQHandler                 0x0800017f   Thumb Code     0  startup_stm32f10x_cl.o(.text)
    DMA2_Channel4_IRQHandler                 0x0800017f   Thumb Code     0  startup_stm32f10x_cl.o(.text)
    DMA2_Channel5_IRQHandler                 0x0800017f   Thumb Code     0  startup_stm32f10x_cl.o(.text)
    ETH_WKUP_IRQHandler                      0x0800017f   Thumb Code     0  startup_stm32f10x_cl.o(.text)
    EXTI0_IRQHandler                         0x0800017f   Thumb Code     0  startup_stm32f10x_cl.o(.text)
    EXTI15_10_IRQHandler                     0x0800017f   Thumb Code     0  startup_stm32f10x_cl.o(.text)
    EXTI1_IRQHandler                         0x0800017f   Thumb Code     0  startup_stm32f10x_cl.o(.text)
    EXTI2_IRQHandler                         0x0800017f   Thumb Code     0  startup_stm32f10x_cl.o(.text)
    EXTI3_IRQHandler                         0x0800017f   Thumb Code     0  startup_stm32f10x_cl.o(.text)
    EXTI4_IRQHandler                         0x0800017f   Thumb Code     0  startup_stm32f10x_cl.o(.text)
    EXTI9_5_IRQHandler                       0x0800017f   Thumb Code     0  startup_stm32f10x_cl.o(.text)
    FLASH_IRQHandler                         0x0800017f   Thumb Code     0  startup_stm32f10x_cl.o(.text)
    I2C1_ER_IRQHandler                       0x0800017f   Thumb Code     0  startup_stm32f10x_cl.o(.text)
    I2C1_EV_IRQHandler                       0x0800017f   Thumb Code     0  startup_stm32f10x_cl.o(.text)
    I2C2_ER_IRQHandler                       0x0800017f   Thumb Code     0  startup_stm32f10x_cl.o(.text)
    I2C2_EV_IRQHandler                       0x0800017f   Thumb Code     0  startup_stm32f10x_cl.o(.text)
    OTG_FS_IRQHandler                        0x0800017f   Thumb Code     0  startup_stm32f10x_cl.o(.text)
    OTG_FS_WKUP_IRQHandler                   0x0800017f   Thumb Code     0  startup_stm32f10x_cl.o(.text)
    PVD_IRQHandler                           0x0800017f   Thumb Code     0  startup_stm32f10x_cl.o(.text)
    RCC_IRQHandler                           0x0800017f   Thumb Code     0  startup_stm32f10x_cl.o(.text)
    RTCAlarm_IRQHandler                      0x0800017f   Thumb Code     0  startup_stm32f10x_cl.o(.text)
    RTC_IRQHandler                           0x0800017f   Thumb Code     0  startup_stm32f10x_cl.o(.text)
    SPI1_IRQHandler                          0x0800017f   Thumb Code     0  startup_stm32f10x_cl.o(.text)
    SPI2_IRQHandler                          0x0800017f   Thumb Code     0  startup_stm32f10x_cl.o(.text)
    SPI3_IRQHandler                          0x0800017f   Thumb Code     0  startup_stm32f10x_cl.o(.text)
    TAMPER_IRQHandler                        0x0800017f   Thumb Code     0  startup_stm32f10x_cl.o(.text)
    TIM1_BRK_IRQHandler                      0x0800017f   Thumb Code     0  startup_stm32f10x_cl.o(.text)
    TIM1_CC_IRQHandler                       0x0800017f   Thumb Code     0  startup_stm32f10x_cl.o(.text)
    TIM1_TRG_COM_IRQHandler                  0x0800017f   Thumb Code     0  startup_stm32f10x_cl.o(.text)
    TIM1_UP_IRQHandler                       0x0800017f   Thumb Code     0  startup_stm32f10x_cl.o(.text)
    TIM2_IRQHandler                          0x0800017f   Thumb Code     0  startup_stm32f10x_cl.o(.text)
    TIM3_IRQHandler                          0x0800017f   Thumb Code     0  startup_stm32f10x_cl.o(.text)
    TIM4_IRQHandler                          0x0800017f   Thumb Code     0  startup_stm32f10x_cl.o(.text)
    TIM6_IRQHandler                          0x0800017f   Thumb Code     0  startup_stm32f10x_cl.o(.text)
    TIM7_IRQHandler                          0x0800017f   Thumb Code     0  startup_stm32f10x_cl.o(.text)
    UART4_IRQHandler                         0x0800017f   Thumb Code     0  startup_stm32f10x_cl.o(.text)
    UART5_IRQHandler                         0x0800017f   Thumb Code     0  startup_stm32f10x_cl.o(.text)
    USART3_IRQHandler                        0x0800017f   Thumb Code     0  startup_stm32f10x_cl.o(.text)
    WWDG_IRQHandler                          0x0800017f   Thumb Code     0  startup_stm32f10x_cl.o(.text)
    OS_CPU_SR_Save                           0x08000189   Thumb Code     0  os_cpu_a.o(.text)
    OS_CPU_SR_Restore                        0x08000191   Thumb Code     0  os_cpu_a.o(.text)
    OSStartHighRdy                           0x08000197   Thumb Code     0  os_cpu_a.o(.text)
    OSCtxSw                                  0x080001b7   Thumb Code     0  os_cpu_a.o(.text)
    OSIntCtxSw                               0x080001c1   Thumb Code     0  os_cpu_a.o(.text)
    PendSV_Handler                           0x080001cb   Thumb Code     0  os_cpu_a.o(.text)
    CPU_IntDis                               0x0800022d   Thumb Code     0  cpu_a.o(.text)
    CPU_IntEn                                0x08000231   Thumb Code     0  cpu_a.o(.text)
    CPU_SR_Save                              0x08000235   Thumb Code     0  cpu_a.o(.text)
    CPU_SR_Restore                           0x0800023d   Thumb Code     0  cpu_a.o(.text)
    CPU_CntLeadZeros                         0x08000243   Thumb Code     0  cpu_a.o(.text)
    CPU_RevBits                              0x08000249   Thumb Code     0  cpu_a.o(.text)
    CPU_WaitForInt                           0x0800024f   Thumb Code     0  cpu_a.o(.text)
    CPU_WaitForExcept                        0x08000253   Thumb Code     0  cpu_a.o(.text)
    __aeabi_memcpy                           0x08000257   Thumb Code    36  memcpya.o(.text)
    __aeabi_memcpy4                          0x08000257   Thumb Code     0  memcpya.o(.text)
    __aeabi_memcpy8                          0x08000257   Thumb Code     0  memcpya.o(.text)
    __aeabi_memset                           0x0800027b   Thumb Code    14  memseta.o(.text)
    __aeabi_memset4                          0x0800027b   Thumb Code     0  memseta.o(.text)
    __aeabi_memset8                          0x0800027b   Thumb Code     0  memseta.o(.text)
    __aeabi_memclr                           0x08000289   Thumb Code     4  memseta.o(.text)
    __aeabi_memclr4                          0x08000289   Thumb Code     0  memseta.o(.text)
    __aeabi_memclr8                          0x08000289   Thumb Code     0  memseta.o(.text)
    _memset$wrapper                          0x0800028d   Thumb Code    20  memseta.o(.text)
    __aeabi_uidiv                            0x080002a1   Thumb Code     0  uidiv.o(.text)
    __aeabi_uidivmod                         0x080002a1   Thumb Code    44  uidiv.o(.text)
    __aeabi_uldivmod                         0x080002cd   Thumb Code   102  uldiv.o(.text)
    __I$use$fp                               0x08000333   Thumb Code     0  iusefp.o(.text)
    _double_round                            0x08000333   Thumb Code    26  depilogue.o(.text)
    _double_epilogue                         0x0800034d   Thumb Code   168  depilogue.o(.text)
    __aeabi_dadd                             0x080003f5   Thumb Code   318  dadd.o(.text)
    __aeabi_dsub                             0x08000533   Thumb Code     6  dadd.o(.text)
    __aeabi_drsub                            0x08000539   Thumb Code     6  dadd.o(.text)
    __aeabi_dmul                             0x0800053f   Thumb Code   226  dmul.o(.text)
    __aeabi_ddiv                             0x08000621   Thumb Code   222  ddiv.o(.text)
    __aeabi_d2ulz                            0x080006ff   Thumb Code    48  dfixul.o(.text)
    __aeabi_cdrcmple                         0x08000731   Thumb Code    38  cdrcmple.o(.text)
    __scatterload                            0x08000759   Thumb Code    28  init.o(.text)
    __scatterload_rt2                        0x08000759   Thumb Code     0  init.o(.text)
    __aeabi_llsl                             0x0800077d   Thumb Code    30  llshl.o(.text)
    _ll_shift_l                              0x0800077d   Thumb Code     0  llshl.o(.text)
    __aeabi_llsr                             0x0800079b   Thumb Code    32  llushr.o(.text)
    _ll_ushift_r                             0x0800079b   Thumb Code     0  llushr.o(.text)
    __aeabi_lasr                             0x080007bb   Thumb Code    36  llsshr.o(.text)
    _ll_sshift_r                             0x080007bb   Thumb Code     0  llsshr.o(.text)
    __decompress                             0x080007df   Thumb Code     0  __dczerorl2.o(.text)
    __decompress1                            0x080007df   Thumb Code    92  __dczerorl2.o(.text)
    App_SSNPTaskCreate                       0x0800083d   Thumb Code    20  uctsk_ssnp_tbc.o(i.App_SSNPTaskCreate)
    App_TCBInitHook                          0x08000859   Thumb Code     2  os_apphooks.o(i.App_TCBInitHook)
    App_TaskCreateHook                       0x08000863   Thumb Code     2  os_apphooks.o(i.App_TaskCreateHook)
    App_TaskIdleHook                         0x08000865   Thumb Code     2  os_apphooks.o(i.App_TaskIdleHook)
    App_TaskStatHook                         0x08000883   Thumb Code     2  os_apphooks.o(i.App_TaskStatHook)
    App_TaskSwHook                           0x08000885   Thumb Code     2  os_apphooks.o(i.App_TaskSwHook)
    App_TimeTickHook                         0x08000887   Thumb Code     2  os_apphooks.o(i.App_TimeTickHook)
    BusFault_Handler                         0x08000889   Thumb Code     4  stm32f10x_it.o(i.BusFault_Handler)
    DebugMon_Handler                         0x0800088d   Thumb Code     2  stm32f10x_it.o(i.DebugMon_Handler)
    ETH_DMAClearITPendingBit                 0x080008b5   Thumb Code     6  stm32_eth.o(i.ETH_DMAClearITPendingBit)
    ETH_DMAITConfig                          0x080008c1   Thumb Code    26  stm32_eth.o(i.ETH_DMAITConfig)
    ETH_DMAReceptionCmd                      0x080008e1   Thumb Code    30  stm32_eth.o(i.ETH_DMAReceptionCmd)
    ETH_DMARxDescChainInit                   0x08000905   Thumb Code    76  stm32_eth.o(i.ETH_DMARxDescChainInit)
    ETH_DMARxDescReceiveITConfig             0x08000959   Thumb Code    22  stm32_eth.o(i.ETH_DMARxDescReceiveITConfig)
    ETH_DMATransmissionCmd                   0x08000971   Thumb Code    30  stm32_eth.o(i.ETH_DMATransmissionCmd)
    ETH_DMATxDescChainInit                   0x08000995   Thumb Code    70  stm32_eth.o(i.ETH_DMATxDescChainInit)
    ETH_DeInit                               0x080009e5   Thumb Code    22  stm32_eth.o(i.ETH_DeInit)
    ETH_FlushTransmitFIFO                    0x08000a09   Thumb Code    14  stm32_eth.o(i.ETH_FlushTransmitFIFO)
    ETH_GetCurrentTxBuffer                   0x08000a1d   Thumb Code     8  ethernetif.o(i.ETH_GetCurrentTxBuffer)
    ETH_GetDMARxDescFrameLength              0x08000a29   Thumb Code    10  stm32_eth.o(i.ETH_GetDMARxDescFrameLength)
    ETH_GetRxPktSize                         0x08000a35   Thumb Code    66  stm32_eth.o(i.ETH_GetRxPktSize)
    ETH_GetSoftwareResetStatus               0x08000a7d   Thumb Code    20  stm32_eth.o(i.ETH_GetSoftwareResetStatus)
    ETH_IRQHandler                           0x08000a95   Thumb Code    60  ssnp_for_app.o(i.ETH_IRQHandler)
    ETH_Init                                 0x08000ad9   Thumb Code   552  stm32_eth.o(i.ETH_Init)
    ETH_MACAddressConfig                     0x08000d25   Thumb Code    46  stm32_eth.o(i.ETH_MACAddressConfig)
    ETH_MACReceptionCmd                      0x08000d59   Thumb Code    30  stm32_eth.o(i.ETH_MACReceptionCmd)
    ETH_MACTransmissionCmd                   0x08000d7d   Thumb Code    30  stm32_eth.o(i.ETH_MACTransmissionCmd)
    ETH_ReadPHYRegister                      0x08000da1   Thumb Code    88  stm32_eth.o(i.ETH_ReadPHYRegister)
    ETH_RxPkt_ChainMode                      0x08000e01   Thumb Code   148  ethernetif.o(i.ETH_RxPkt_ChainMode)
    ETH_SoftwareReset                        0x08000e9d   Thumb Code    14  stm32_eth.o(i.ETH_SoftwareReset)
    ETH_Start                                0x08000eb1   Thumb Code    32  stm32_eth.o(i.ETH_Start)
    ETH_StructInit                           0x08000ed1   Thumb Code   164  stm32_eth.o(i.ETH_StructInit)
    ETH_TxPkt_ChainMode                      0x08000f75   Thumb Code    94  ethernetif.o(i.ETH_TxPkt_ChainMode)
    ETH_WritePHYRegister                     0x08000fdd   Thumb Code    88  stm32_eth.o(i.ETH_WritePHYRegister)
    GPIO_ETH_MediaInterfaceConfig            0x080010dd   Thumb Code     6  stm32f10x_gpio.o(i.GPIO_ETH_MediaInterfaceConfig)
    GPIO_Init                                0x080010e9   Thumb Code   274  stm32f10x_gpio.o(i.GPIO_Init)
    GPIO_PinRemapConfig                      0x080011fd   Thumb Code   138  stm32f10x_gpio.o(i.GPIO_PinRemapConfig)
    HardFault_Handler                        0x0800128d   Thumb Code     4  stm32f10x_it.o(i.HardFault_Handler)
    I2C_Ack                                  0x08001291   Thumb Code    48  i2c_fram.o(i.I2C_Ack)
    I2C_BufferWrite                          0x080012cd   Thumb Code   298  i2c_fram.o(i.I2C_BufferWrite)
    I2C_FRAM_BufferRead                      0x080013f9   Thumb Code   164  i2c_fram.o(i.I2C_FRAM_BufferRead)
    I2C_Fram_PageWrite                       0x080014a1   Thumb Code    84  i2c_fram.o(i.I2C_Fram_PageWrite)
    I2C_NoAck                                0x080014f5   Thumb Code    48  i2c_fram.o(i.I2C_NoAck)
    I2C_ReceiveByte                          0x08001531   Thumb Code    74  i2c_fram.o(i.I2C_ReceiveByte)
    I2C_SendByte                             0x0800158d   Thumb Code    74  i2c_fram.o(i.I2C_SendByte)
    I2C_Start                                0x080015e1   Thumb Code    84  i2c_fram.o(i.I2C_Start)
    I2C_Stop                                 0x08001645   Thumb Code    48  i2c_fram.o(i.I2C_Stop)
    I2C_WaitAck                              0x08001681   Thumb Code    70  i2c_fram.o(i.I2C_WaitAck)
    I2C_delay                                0x080016d5   Thumb Code    30  i2c_fram.o(i.I2C_delay)
    InitiateDiscovery                        0x080016f5   Thumb Code   134  ethbcp.o(i.InitiateDiscovery)
    MemManage_Handler                        0x080017ad   Thumb Code     4  stm32f10x_it.o(i.MemManage_Handler)
    NMI_Handler                              0x080017b1   Thumb Code     2  stm32f10x_it.o(i.NMI_Handler)
    NVIC_Init                                0x08001829   Thumb Code   118  misc.o(i.NVIC_Init)
    NVIC_PriorityGroupConfig                 0x080018ad   Thumb Code    10  misc.o(i.NVIC_PriorityGroupConfig)
    OSDebugInit                              0x080018c1   Thumb Code   118  os_dbg.o(i.OSDebugInit)
    OSEventNameSet                           0x08001a1d   Thumb Code   100  os_core.o(i.OSEventNameSet)
    OSInit                                   0x08001a85   Thumb Code    56  os_core.o(i.OSInit)
    OSInitHookBegin                          0x08001abd   Thumb Code     8  os_cpu_c.o(i.OSInitHookBegin)
    OSInitHookEnd                            0x08001ac9   Thumb Code     2  os_cpu_c.o(i.OSInitHookEnd)
    OSIntExit                                0x08001acd   Thumb Code   112  os_core.o(i.OSIntExit)
    OSMemCreate                              0x08001b5d   Thumb Code   164  os_mem.o(i.OSMemCreate)
    OSMemGet                                 0x08001c05   Thumb Code    72  os_mem.o(i.OSMemGet)
    OSMemPut                                 0x08001c4d   Thumb Code    66  os_mem.o(i.OSMemPut)
    OSQAccept                                0x08001c8f   Thumb Code    98  os_q.o(i.OSQAccept)
    OSQCreate                                0x08001cf1   Thumb Code   144  os_q.o(i.OSQCreate)
    OSQDel                                   0x08001d91   Thumb Code   254  os_q.o(i.OSQDel)
    OSQFlush                                 0x08001ea1   Thumb Code    52  os_q.o(i.OSQFlush)
    OSQPend                                  0x08001ed5   Thumb Code   288  os_q.o(i.OSQPend)
    OSQPost                                  0x08002001   Thumb Code   120  os_q.o(i.OSQPost)
    OSSchedLock                              0x08002079   Thumb Code    50  os_core.o(i.OSSchedLock)
    OSSchedUnlock                            0x080020b9   Thumb Code    82  os_core.o(i.OSSchedUnlock)
    OSSemCreate                              0x08002119   Thumb Code    72  os_sem.o(i.OSSemCreate)
    OSSemDel                                 0x0800216d   Thumb Code   220  os_sem.o(i.OSSemDel)
    OSSemPend                                0x08002255   Thumb Code   236  os_sem.o(i.OSSemPend)
    OSSemPost                                0x0800234d   Thumb Code    94  os_sem.o(i.OSSemPost)
    OSStart                                  0x080023ad   Thumb Code    48  os_core.o(i.OSStart)
    OSStatInit                               0x080023f5   Thumb Code    62  os_core.o(i.OSStatInit)
    OSTCBInitHook                            0x08002441   Thumb Code    12  os_cpu_c.o(i.OSTCBInitHook)
    OSTaskCreate                             0x0800244d   Thumb Code   154  os_task.o(i.OSTaskCreate)
    OSTaskCreateExt                          0x080024f5   Thumb Code   178  os_task.o(i.OSTaskCreateExt)
    OSTaskCreateHook                         0x080025b5   Thumb Code    12  os_cpu_c.o(i.OSTaskCreateHook)
    OSTaskIdleHook                           0x080025c1   Thumb Code     8  os_cpu_c.o(i.OSTaskIdleHook)
    OSTaskNameSet                            0x080025c9   Thumb Code   120  os_task.o(i.OSTaskNameSet)
    OSTaskStatHook                           0x0800264d   Thumb Code     8  os_cpu_c.o(i.OSTaskStatHook)
    OSTaskStkChk                             0x08002655   Thumb Code   150  os_task.o(i.OSTaskStkChk)
    OSTaskStkInit                            0x080026f5   Thumb Code   154  os_cpu_c.o(i.OSTaskStkInit)
    OSTaskSuspend                            0x08002791   Thumb Code   180  os_task.o(i.OSTaskSuspend)
    OSTaskSwHook                             0x08002855   Thumb Code     8  os_cpu_c.o(i.OSTaskSwHook)
    OSTimeDly                                0x0800285d   Thumb Code   108  os_time.o(i.OSTimeDly)
    OSTimeDlyHMSM                            0x080028dd   Thumb Code   124  os_time.o(i.OSTimeDlyHMSM)
    OSTimeGet                                0x08002961   Thumb Code    24  os_time.o(i.OSTimeGet)
    OSTimeTick                               0x0800297d   Thumb Code   218  os_core.o(i.OSTimeTick)
    OSTimeTickHook                           0x08002a71   Thumb Code    34  os_cpu_c.o(i.OSTimeTickHook)
    OSTmrSignal                              0x08002a99   Thumb Code    16  os_tmr.o(i.OSTmrSignal)
    OSTmr_Init                               0x08002aad   Thumb Code   168  os_tmr.o(i.OSTmr_Init)
    OS_CPU_SysTickInit                       0x08002d21   Thumb Code    86  os_cpu_c.o(i.OS_CPU_SysTickInit)
    OS_EventTaskRdy                          0x08002d85   Thumb Code   138  os_core.o(i.OS_EventTaskRdy)
    OS_EventTaskRemove                       0x08002e21   Thumb Code    50  os_core.o(i.OS_EventTaskRemove)
    OS_EventTaskRemoveMulti                  0x08002e53   Thumb Code    80  os_core.o(i.OS_EventTaskRemoveMulti)
    OS_EventTaskWait                         0x08002ea5   Thumb Code   120  os_core.o(i.OS_EventTaskWait)
    OS_EventWaitListInit                     0x08002f29   Thumb Code    28  os_core.o(i.OS_EventWaitListInit)
    OS_FlagInit                              0x08002f45   Thumb Code    74  os_flag.o(i.OS_FlagInit)
    OS_MemClr                                0x080031b5   Thumb Code    18  os_core.o(i.OS_MemClr)
    OS_MemInit                               0x080031c9   Thumb Code    74  os_mem.o(i.OS_MemInit)
    OS_QInit                                 0x08003221   Thumb Code    72  os_q.o(i.OS_QInit)
    OS_Sched                                 0x08003271   Thumb Code    88  os_core.o(i.OS_Sched)
    OS_TCBInit                               0x08003311   Thumb Code   294  os_core.o(i.OS_TCBInit)
    OS_TaskIdle                              0x08003455   Thumb Code    34  os_core.o(i.OS_TaskIdle)
    OS_TaskStat                              0x0800347d   Thumb Code   116  os_core.o(i.OS_TaskStat)
    OS_TaskStatStkChk                        0x08003505   Thumb Code    54  os_core.o(i.OS_TaskStatStkChk)
    OS_TaskStkClr                            0x08003541   Thumb Code    26  os_task.o(i.OS_TaskStkClr)
    RCC_AHBPeriphClockCmd                    0x0800355d   Thumb Code    26  stm32f10x_rcc.o(i.RCC_AHBPeriphClockCmd)
    RCC_AHBPeriphResetCmd                    0x0800357d   Thumb Code    26  stm32f10x_rcc.o(i.RCC_AHBPeriphResetCmd)
    RCC_APB1PeriphClockCmd                   0x0800359d   Thumb Code    26  stm32f10x_rcc.o(i.RCC_APB1PeriphClockCmd)
    RCC_APB2PeriphClockCmd                   0x080035bd   Thumb Code    26  stm32f10x_rcc.o(i.RCC_APB2PeriphClockCmd)
    RCC_GetClocksFreq                        0x080035dd   Thumb Code   374  stm32f10x_rcc.o(i.RCC_GetClocksFreq)
    RCC_GetFlagStatus                        0x0800376d   Thumb Code    56  stm32f10x_rcc.o(i.RCC_GetFlagStatus)
    RCC_MCOConfig                            0x080037a9   Thumb Code     6  stm32f10x_rcc.o(i.RCC_MCOConfig)
    RCC_PLL3Cmd                              0x080037b5   Thumb Code     6  stm32f10x_rcc.o(i.RCC_PLL3Cmd)
    RCC_PLL3Config                           0x080037c1   Thumb Code    18  stm32f10x_rcc.o(i.RCC_PLL3Config)
    SVC_Handler                              0x080037d9   Thumb Code     2  stm32f10x_it.o(i.SVC_Handler)
    SysTick_Handler                          0x080038e5   Thumb Code    34  stm32f10x_it.o(i.SysTick_Handler)
    SystemInit                               0x0800390d   Thumb Code    92  system_stm32f10x.o(i.SystemInit)
    TBC_DLL_init                             0x08003979   Thumb Code    58  ethbcp.o(i.TBC_DLL_init)
    TBC_init                                 0x080039e1   Thumb Code    26  tbc.o(i.TBC_init)
    TBC_send_cmd_to_tbim                     0x08003a01   Thumb Code    36  tbc.o(i.TBC_send_cmd_to_tbim)
    TBC_send_noArguCmd_to_tbim               0x08003a25   Thumb Code    36  tbc.o(i.TBC_send_noArguCmd_to_tbim)
    TBC_send_noArgucmd                       0x08003a49   Thumb Code    34  tbc.o(i.TBC_send_noArgucmd)
    TBC_send_upcomputer_cmd                  0x08003a6b   Thumb Code    24  tbc.o(i.TBC_send_upcomputer_cmd)
    TBIM_recongnition                        0x08003a83   Thumb Code    42  tbc.o(i.TBIM_recongnition)
    TIM5_IRQHandler                          0x08003aad   Thumb Code    60  uctsk_ssnp_tbc.o(i.TIM5_IRQHandler)
    TIM_ClearITPendingBit                    0x08003b35   Thumb Code     6  stm32f10x_tim.o(i.TIM_ClearITPendingBit)
    TIM_Cmd                                  0x08003b3b   Thumb Code    24  stm32f10x_tim.o(i.TIM_Cmd)
    TIM_GetCounter                           0x08003b53   Thumb Code     6  stm32f10x_tim.o(i.TIM_GetCounter)
    TIM_GetITStatus                          0x08003b59   Thumb Code    34  stm32f10x_tim.o(i.TIM_GetITStatus)
    TIM_ITConfig                             0x08003b7b   Thumb Code    24  stm32f10x_tim.o(i.TIM_ITConfig)
    TIM_TimeBaseInit                         0x08003b95   Thumb Code   122  stm32f10x_tim.o(i.TIM_TimeBaseInit)
    USART1_IRQHandler                        0x08003c39   Thumb Code     2  stm32f10x_it.o(i.USART1_IRQHandler)
    USART2_IRQHandler                        0x08003c3d   Thumb Code   230  ssnp_for_app.o(i.USART2_IRQHandler)
    USART_ClearFlag                          0x08003de5   Thumb Code    18  stm32f10x_usart.o(i.USART_ClearFlag)
    USART_ClearITPendingBit                  0x08003df7   Thumb Code    30  stm32f10x_usart.o(i.USART_ClearITPendingBit)
    USART_Cmd                                0x08003e15   Thumb Code    24  stm32f10x_usart.o(i.USART_Cmd)
    USART_GetFlagStatus                      0x08003ecd   Thumb Code    26  stm32f10x_usart.o(i.USART_GetFlagStatus)
    USART_GetITStatus                        0x08003ee7   Thumb Code    84  stm32f10x_usart.o(i.USART_GetITStatus)
    USART_ITConfig                           0x08003f3b   Thumb Code    74  stm32f10x_usart.o(i.USART_ITConfig)
    USART_Init                               0x08003f85   Thumb Code   210  stm32f10x_usart.o(i.USART_Init)
    USART_ReceiveData                        0x0800405d   Thumb Code    10  stm32f10x_usart.o(i.USART_ReceiveData)
    USART_SendData                           0x08004067   Thumb Code     8  stm32f10x_usart.o(i.USART_SendData)
    UsageFault_Handler                       0x0800406f   Thumb Code     4  stm32f10x_it.o(i.UsageFault_Handler)
    __0printf                                0x08004075   Thumb Code    22  printfa.o(i.__0printf)
    __1printf                                0x08004075   Thumb Code     0  printfa.o(i.__0printf)
    __2printf                                0x08004075   Thumb Code     0  printfa.o(i.__0printf)
    __c89printf                              0x08004075   Thumb Code     0  printfa.o(i.__0printf)
    printf                                   0x08004075   Thumb Code     0  printfa.o(i.__0printf)
    __scatterload_copy                       0x08004095   Thumb Code    14  handlers.o(i.__scatterload_copy)
    __scatterload_null                       0x080040a3   Thumb Code     2  handlers.o(i.__scatterload_null)
    __scatterload_zeroinit                   0x080040a5   Thumb Code    14  handlers.o(i.__scatterload_zeroinit)
    add_alias_pending                        0x08004931   Thumb Code    82  alias_state.o(i.add_alias_pending)
    alias_check_timer                        0x08004a85   Thumb Code    30  timer.o(i.alias_check_timer)
    alias_done                               0x08004aa9   Thumb Code   190  alias_state.o(i.alias_done)
    alloc_alias_map                          0x08004b71   Thumb Code    70  alias_map.o(i.alloc_alias_map)
    clear_unresponsive_alias                 0x08004cc9   Thumb Code    68  alias_state.o(i.clear_unresponsive_alias)
    deQueue                                  0x08004f5d   Thumb Code    86  upcomputer.o(i.deQueue)
    del_alias_map                            0x08004fb9   Thumb Code    40  alias_map.o(i.del_alias_map)
    do_bind                                  0x08005045   Thumb Code   114  api_msg.o(i.do_bind)
    do_connect                               0x080050b7   Thumb Code   100  api_msg.o(i.do_connect)
    do_get_alias_alloc_state                 0x0800511b   Thumb Code    24  api_msg.o(i.do_get_alias_alloc_state)
    do_newconn                               0x08005133   Thumb Code    30  api_msg.o(i.do_newconn)
    do_send                                  0x08005151   Thumb Code   164  api_msg.o(i.do_send)
    dp_bind                                  0x08005215   Thumb Code    50  dp.o(i.dp_bind)
    dp_connect                               0x0800524d   Thumb Code    52  dp.o(i.dp_connect)
    dp_input                                 0x08005285   Thumb Code   538  dp.o(i.dp_input)
    dp_new                                   0x08005669   Thumb Code    24  dp.o(i.dp_new)
    dp_recv                                  0x08005681   Thumb Code     6  dp.o(i.dp_recv)
    dp_sendto                                0x08005687   Thumb Code    46  dp.o(i.dp_sendto)
    dp_sendto_if                             0x080056b5   Thumb Code   352  dp.o(i.dp_sendto_if)
    ethbcp_output                            0x08005ad1   Thumb Code   140  ethbcp.o(i.ethbcp_output)
    ethernet_input                           0x08005cbd   Thumb Code   222  ethbcp.o(i.ethernet_input)
    ethernetif_init                          0x08005e79   Thumb Code    70  ethernetif.o(i.ethernetif_init)
    ethernetif_input                         0x08005ef1   Thumb Code    66  ethernetif.o(i.ethernetif_input)
    find_tbim                                0x08005f79   Thumb Code    52  tbc.o(i.find_tbim)
    fputc                                    0x08005fb1   Thumb Code    32  uctsk_ssnp_tbc.o(i.fputc)
    get_alias_alloc_state                    0x08006241   Thumb Code     6  ethbcp.o(i.get_alias_alloc_state)
    get_alias_done_list                      0x0800624d   Thumb Code     6  alias_state.o(i.get_alias_done_list)
    get_done_list                            0x08006259   Thumb Code    20  ethbcp.o(i.get_done_list)
    get_epoch                                0x0800628d   Thumb Code   218  tbc.o(i.get_epoch)
    get_tbim                                 0x080063ad   Thumb Code    38  api_lib.o(i.get_tbim)
    hardware_init                            0x080063d9   Thumb Code     8  ssnp_for_app.o(i.hardware_init)
    inet_chksum                              0x080063e1   Thumb Code     6  inet_chksum.o(i.inet_chksum)
    init_queue                               0x080063e9   Thumb Code    12  upcomputer.o(i.init_queue)
    isQempty                                 0x08006489   Thumb Code    16  upcomputer.o(i.isQempty)
    is_exist_in_pending_list                 0x0800649d   Thumb Code    26  alias_state.o(i.is_exist_in_pending_list)
    is_reflect_reply_ok                      0x080064b9   Thumb Code     6  ethbcp.o(i.is_reflect_reply_ok)
    main                                     0x08006615   Thumb Code    72  main.o(i.main)
    mem_alloc                                0x08006671   Thumb Code   246  mem.o(i.mem_alloc)
    mem_free                                 0x08006779   Thumb Code    74  mem.o(i.mem_free)
    mem_init                                 0x080067d5   Thumb Code    82  mem.o(i.mem_init)
    mem_trim                                 0x0800683d   Thumb Code   252  mem.o(i.mem_trim)
    memp_alloc                               0x08006949   Thumb Code    38  memp.o(i.memp_alloc)
    memp_free                                0x08006975   Thumb Code    46  memp.o(i.memp_free)
    memp_init                                0x080069a9   Thumb Code    70  memp.o(i.memp_init)
    netbuf_delete                            0x08006a43   Thumb Code    30  netbuf.o(i.netbuf_delete)
    netbuf_free                              0x08006a61   Thumb Code    20  netbuf.o(i.netbuf_free)
    netbuf_ref                               0x08006a75   Thumb Code    56  netbuf.o(i.netbuf_ref)
    netconn_bind                             0x08006b7d   Thumb Code    50  api_lib.o(i.netconn_bind)
    netconn_connect                          0x08006bb5   Thumb Code    50  api_lib.o(i.netconn_connect)
    netconn_new                              0x08006bed   Thumb Code    60  api_lib.o(i.netconn_new)
    netconn_recv                             0x08006c2d   Thumb Code    40  api_lib.o(i.netconn_recv)
    netconn_send                             0x08006c55   Thumb Code    52  api_lib.o(i.netconn_send)
    netconn_sendto                           0x08006c8d   Thumb Code    36  api_lib.o(i.netconn_sendto)
    netif_add                                0x08006cb1   Thumb Code    84  netif.o(i.netif_add)
    netif_init                               0x08006d31   Thumb Code     2  netif.o(i.netif_init)
    netif_set_default                        0x08006d35   Thumb Code     6  netif.o(i.netif_set_default)
    pbuf_alloc                               0x08006d41   Thumb Code   366  pbuf.o(i.pbuf_alloc)
    pbuf_cat                                 0x08006ed1   Thumb Code    36  pbuf.o(i.pbuf_cat)
    pbuf_chain                               0x08006ef5   Thumb Code    22  pbuf.o(i.pbuf_chain)
    pbuf_free                                0x08006f0b   Thumb Code   108  pbuf.o(i.pbuf_free)
    pbuf_header                              0x08006f77   Thumb Code   106  pbuf.o(i.pbuf_header)
    pbuf_realloc                             0x08006fe1   Thumb Code   100  pbuf.o(i.pbuf_realloc)
    pbuf_ref                                 0x08007045   Thumb Code    26  pbuf.o(i.pbuf_ref)
    protocol_init                            0x08007165   Thumb Code    78  ssnp_for_app.o(i.protocol_init)
    protocol_stack_init                      0x080071cd   Thumb Code    28  init.o(i.protocol_stack_init)
    sdp_bind                                 0x08007341   Thumb Code    50  sdp.o(i.sdp_bind)
    sdp_connect                              0x08007379   Thumb Code    52  sdp.o(i.sdp_connect)
    sdp_input                                0x080073b1   Thumb Code   514  sdp.o(i.sdp_input)
    sdp_new                                  0x080076c5   Thumb Code    24  sdp.o(i.sdp_new)
    sdp_recv                                 0x080076dd   Thumb Code     6  sdp.o(i.sdp_recv)
    sdp_sendto                               0x080076e3   Thumb Code    46  sdp.o(i.sdp_sendto)
    sdp_sendto_if                            0x08007711   Thumb Code   362  sdp.o(i.sdp_sendto_if)
    send_assign_time_slot_msg                0x080079b1   Thumb Code   168  ethbcp.o(i.send_assign_time_slot_msg)
    send_begin_of_epoch_msg                  0x08007a95   Thumb Code   126  ethbcp.o(i.send_begin_of_epoch_msg)
    send_define_epoch_msg                    0x08007b95   Thumb Code   164  ethbcp.o(i.send_define_epoch_msg)
    send_discovery_msg                       0x08007c71   Thumb Code    10  ssnp_for_app.o(i.send_discovery_msg)
    send_reflect_msg                         0x08007cd1   Thumb Code   134  ethbcp.o(i.send_reflect_msg)
    send_sdp_upcomputer                      0x08007d8d   Thumb Code    60  upcomputer.o(i.send_sdp_upcomputer)
    send_upcomputer                          0x08007e21   Thumb Code    42  upcomputer.o(i.send_upcomputer)
    set_alias_alloc_done                     0x08007e51   Thumb Code     8  ethbcp.o(i.set_alias_alloc_done)
    set_connection_recvmbox                  0x08007e5d   Thumb Code    12  api_lib.o(i.set_connection_recvmbox)
    set_mac_address                          0x08007e69   Thumb Code    32  ethernetif.o(i.set_mac_address)
    set_reflect_reply_unfinished             0x08007e8d   Thumb Code     8  ethbcp.o(i.set_reflect_reply_unfinished)
    set_syn_asyn_num                         0x08007ea1   Thumb Code    12  tbc.o(i.set_syn_asyn_num)
    ssnp_apimsg                              0x08007eb1   Thumb Code    52  ssnp.o(i.ssnp_apimsg)
    ssnp_apimsg_alias_list                   0x08007ee9   Thumb Code    50  ssnp.o(i.ssnp_apimsg_alias_list)
    ssnp_init                                0x08007f21   Thumb Code    48  ssnp.o(i.ssnp_init)
    ssnp_input                               0x08007f7d   Thumb Code    84  ssnp.o(i.ssnp_input)
    sys_arch_mbox_fetch                      0x080080b9   Thumb Code   136  sys_arch.o(i.sys_arch_mbox_fetch)
    sys_arch_mbox_fetch_unblock              0x08008145   Thumb Code    20  sys_arch.o(i.sys_arch_mbox_fetch_unblock)
    sys_arch_sem_wait                        0x08008159   Thumb Code   108  sys_arch.o(i.sys_arch_sem_wait)
    sys_init                                 0x080081c5   Thumb Code    26  sys_arch.o(i.sys_init)
    sys_mbox_free                            0x080081e9   Thumb Code    78  sys_arch.o(i.sys_mbox_free)
    sys_mbox_new                             0x08008261   Thumb Code    72  sys_arch.o(i.sys_mbox_new)
    sys_mbox_post                            0x080082b9   Thumb Code    42  sys_arch.o(i.sys_mbox_post)
    sys_mbox_trypost                         0x080082e9   Thumb Code    30  sys_arch.o(i.sys_mbox_trypost)
    sys_sem_free                             0x0800830d   Thumb Code    16  sys_arch.o(i.sys_sem_free)
    sys_sem_new                              0x0800831d   Thumb Code    16  sys_arch.o(i.sys_sem_new)
    sys_sem_signal                           0x0800832d   Thumb Code    12  sys_arch.o(i.sys_sem_signal)
    sys_thread_new                           0x08008339   Thumb Code   126  sys_arch.o(i.sys_thread_new)
    sys_time_get                             0x080083bd   Thumb Code     8  sys_arch.o(i.sys_time_get)
    sys_timeout                              0x080083c5   Thumb Code   148  timer.o(i.sys_timeout)
    sys_timeouts_init                        0x0800845d   Thumb Code    16  timer.o(i.sys_timeouts_init)
    sys_timeouts_mbox_fetch                  0x08008471   Thumb Code   136  timer.o(i.sys_timeouts_mbox_fetch)
    sys_untimeout                            0x080084fd   Thumb Code    90  timer.o(i.sys_untimeout)
    tbc_send_begin_of_epoch_msg              0x0800855d   Thumb Code    10  ssnp_for_app.o(i.tbc_send_begin_of_epoch_msg)
    tbc_send_define_epoch_msg                0x0800856d   Thumb Code    18  ssnp_for_app.o(i.tbc_send_define_epoch_msg)
    tbc_send_reflect_msg                     0x08008585   Thumb Code    14  ssnp_for_app.o(i.tbc_send_reflect_msg)
    tbc_send_timeslot_msg                    0x08008599   Thumb Code    26  ssnp_for_app.o(i.tbc_send_timeslot_msg)
    timeslot_alloc                           0x080085d5   Thumb Code     8  tbc.o(i.timeslot_alloc)
    tp_bind                                  0x080085dd   Thumb Code    68  tp.o(i.tp_bind)
    tp_connect                               0x08008625   Thumb Code    52  tp.o(i.tp_connect)
    tp_input                                 0x0800865d   Thumb Code   320  tp.o(i.tp_input)
    tp_new                                   0x08008889   Thumb Code    24  tp.o(i.tp_new)
    tp_recv                                  0x080088a1   Thumb Code     6  tp.o(i.tp_recv)
    tp_sendto                                0x080088a7   Thumb Code    46  tp.o(i.tp_sendto)
    tp_sendto_if                             0x080088d5   Thumb Code   186  tp.o(i.tp_sendto_if)
    writeMetaTeds                            0x08008c79   Thumb Code   116  ssnp_for_app.o(i.writeMetaTeds)
    OSDebugEn                                0x08008d38   Data           2  os_dbg.o(.constdata)
    OSEndiannessTest                         0x08008d3c   Data           4  os_dbg.o(.constdata)
    OSEventEn                                0x08008d40   Data           2  os_dbg.o(.constdata)
    OSEventMax                               0x08008d42   Data           2  os_dbg.o(.constdata)
    OSEventNameEn                            0x08008d44   Data           2  os_dbg.o(.constdata)
    OSEventSize                              0x08008d46   Data           2  os_dbg.o(.constdata)
    OSEventTblSize                           0x08008d48   Data           2  os_dbg.o(.constdata)
    OSEventMultiEn                           0x08008d4a   Data           2  os_dbg.o(.constdata)
    OSFlagEn                                 0x08008d4c   Data           2  os_dbg.o(.constdata)
    OSFlagGrpSize                            0x08008d4e   Data           2  os_dbg.o(.constdata)
    OSFlagNodeSize                           0x08008d50   Data           2  os_dbg.o(.constdata)
    OSFlagWidth                              0x08008d52   Data           2  os_dbg.o(.constdata)
    OSFlagMax                                0x08008d54   Data           2  os_dbg.o(.constdata)
    OSFlagNameEn                             0x08008d56   Data           2  os_dbg.o(.constdata)
    OSLowestPrio                             0x08008d58   Data           2  os_dbg.o(.constdata)
    OSMboxEn                                 0x08008d5a   Data           2  os_dbg.o(.constdata)
    OSMemEn                                  0x08008d5c   Data           2  os_dbg.o(.constdata)
    OSMemMax                                 0x08008d5e   Data           2  os_dbg.o(.constdata)
    OSMemNameEn                              0x08008d60   Data           2  os_dbg.o(.constdata)
    OSMemSize                                0x08008d62   Data           2  os_dbg.o(.constdata)
    OSMemTblSize                             0x08008d64   Data           2  os_dbg.o(.constdata)
    OSMutexEn                                0x08008d66   Data           2  os_dbg.o(.constdata)
    OSPtrSize                                0x08008d68   Data           2  os_dbg.o(.constdata)
    OSQEn                                    0x08008d6a   Data           2  os_dbg.o(.constdata)
    OSQMax                                   0x08008d6c   Data           2  os_dbg.o(.constdata)
    OSQSize                                  0x08008d6e   Data           2  os_dbg.o(.constdata)
    OSRdyTblSize                             0x08008d70   Data           2  os_dbg.o(.constdata)
    OSSemEn                                  0x08008d72   Data           2  os_dbg.o(.constdata)
    OSStkWidth                               0x08008d74   Data           2  os_dbg.o(.constdata)
    OSTaskCreateEn                           0x08008d76   Data           2  os_dbg.o(.constdata)
    OSTaskCreateExtEn                        0x08008d78   Data           2  os_dbg.o(.constdata)
    OSTaskDelEn                              0x08008d7a   Data           2  os_dbg.o(.constdata)
    OSTaskIdleStkSize                        0x08008d7c   Data           2  os_dbg.o(.constdata)
    OSTaskProfileEn                          0x08008d7e   Data           2  os_dbg.o(.constdata)
    OSTaskMax                                0x08008d80   Data           2  os_dbg.o(.constdata)
    OSTaskNameEn                             0x08008d82   Data           2  os_dbg.o(.constdata)
    OSTaskStatEn                             0x08008d84   Data           2  os_dbg.o(.constdata)
    OSTaskStatStkSize                        0x08008d86   Data           2  os_dbg.o(.constdata)
    OSTaskStatStkChkEn                       0x08008d88   Data           2  os_dbg.o(.constdata)
    OSTaskSwHookEn                           0x08008d8a   Data           2  os_dbg.o(.constdata)
    OSTaskRegTblSize                         0x08008d8c   Data           2  os_dbg.o(.constdata)
    OSTCBPrioTblMax                          0x08008d8e   Data           2  os_dbg.o(.constdata)
    OSTCBSize                                0x08008d90   Data           2  os_dbg.o(.constdata)
    OSTicksPerSec                            0x08008d92   Data           2  os_dbg.o(.constdata)
    OSTimeTickHookEn                         0x08008d94   Data           2  os_dbg.o(.constdata)
    OSVersionNbr                             0x08008d96   Data           2  os_dbg.o(.constdata)
    OSTmrEn                                  0x08008d98   Data           2  os_dbg.o(.constdata)
    OSTmrCfgMax                              0x08008d9a   Data           2  os_dbg.o(.constdata)
    OSTmrCfgNameEn                           0x08008d9c   Data           2  os_dbg.o(.constdata)
    OSTmrCfgWheelSize                        0x08008d9e   Data           2  os_dbg.o(.constdata)
    OSTmrCfgTicksPerSec                      0x08008da0   Data           2  os_dbg.o(.constdata)
    OSTmrSize                                0x08008da2   Data           2  os_dbg.o(.constdata)
    OSTmrTblSize                             0x08008da4   Data           2  os_dbg.o(.constdata)
    OSTmrWheelSize                           0x08008da6   Data           2  os_dbg.o(.constdata)
    OSTmrWheelTblSize                        0x08008da8   Data           2  os_dbg.o(.constdata)
    OSDataSize                               0x08008daa   Data           2  os_dbg.o(.constdata)
    OSUnMapTbl                               0x08008dac   Data         256  os_core.o(.constdata)
    pvNullPointer                            0x08008edc   Data           4  sys_arch.o(.constdata)
    Region$$Table$$Base                      0x08008f24   Number         0  anon$$obj.o(Region$$Table)
    Region$$Table$$Limit                     0x08008f44   Number         0  anon$$obj.o(Region$$Table)
    recv_num                                 0x20000000   Data           4  uctsk_ssnp_tbc.o(.data)
    syn_num                                  0x20000004   Data           4  uctsk_ssnp_tbc.o(.data)
    asyn_num                                 0x20000008   Data           4  uctsk_ssnp_tbc.o(.data)
    upcomputer_cmd_recv_mbox                 0x20000014   Data           4  uctsk_ssnp_tbc.o(.data)
    get_up_cmd                               0x20000018   Data           4  uctsk_ssnp_tbc.o(.data)
    get_up_cmd_alias                         0x2000001c   Data           1  uctsk_ssnp_tbc.o(.data)
    get_up_cmd_tdcn                          0x2000001d   Data           1  uctsk_ssnp_tbc.o(.data)
    FRAM_ADDRESS                             0x2000001e   Data           1  i2c_fram.o(.data)
    DMATxDescToSet                           0x20000034   Data           4  stm32_eth.o(.data)
    DMARxDescToGet                           0x20000038   Data           4  stm32_eth.o(.data)
    DMAPTPTxDescToSet                        0x2000003c   Data           4  stm32_eth.o(.data)
    DMAPTPRxDescToGet                        0x20000040   Data           4  stm32_eth.o(.data)
    SystemCoreClock                          0x20000044   Data           4  system_stm32f10x.o(.data)
    AHBPrescTable                            0x20000048   Data          16  system_stm32f10x.o(.data)
    OSCtxSwCtr                               0x2000005c   Data           4  os_core.o(.data)
    OSEventFreeList                          0x20000060   Data           4  os_core.o(.data)
    OSFlagFreeList                           0x20000064   Data           4  os_core.o(.data)
    OSCPUUsage                               0x20000068   Data           1  os_core.o(.data)
    OSIdleCtrMax                             0x2000006c   Data           4  os_core.o(.data)
    OSIdleCtrRun                             0x20000070   Data           4  os_core.o(.data)
    OSStatRdy                                0x20000074   Data           1  os_core.o(.data)
    OSIntNesting                             0x20000075   Data           1  os_core.o(.data)
    OSLockNesting                            0x20000076   Data           1  os_core.o(.data)
    OSPrioCur                                0x20000077   Data           1  os_core.o(.data)
    OSPrioHighRdy                            0x20000078   Data           1  os_core.o(.data)
    OSRdyGrp                                 0x20000079   Data           1  os_core.o(.data)
    OSRdyTbl                                 0x2000007a   Data           8  os_core.o(.data)
    OSRunning                                0x20000082   Data           1  os_core.o(.data)
    OSTaskCtr                                0x20000083   Data           1  os_core.o(.data)
    OSIdleCtr                                0x20000084   Data           4  os_core.o(.data)
    OSTCBCur                                 0x20000088   Data           4  os_core.o(.data)
    OSTCBFreeList                            0x2000008c   Data           4  os_core.o(.data)
    OSTCBHighRdy                             0x20000090   Data           4  os_core.o(.data)
    OSTCBList                                0x20000094   Data           4  os_core.o(.data)
    OSTickStepState                          0x20000098   Data           1  os_core.o(.data)
    OSMemFreeList                            0x2000009c   Data           4  os_core.o(.data)
    OSQFreeList                              0x200000a0   Data           4  os_core.o(.data)
    OSTime                                   0x200000a4   Data           4  os_core.o(.data)
    OSTmrFree                                0x200000a8   Data           2  os_core.o(.data)
    OSTmrUsed                                0x200000aa   Data           2  os_core.o(.data)
    OSTmrTime                                0x200000ac   Data           4  os_core.o(.data)
    OSTmrSem                                 0x200000b0   Data           4  os_core.o(.data)
    OSTmrSemSignal                           0x200000b4   Data           4  os_core.o(.data)
    OSTmrFreeList                            0x200000b8   Data           4  os_core.o(.data)
    mac_address                              0x200000cf   Data           6  ethernetif.o(.data)
    MACaddr                                  0x200000d5   Data           6  ethernetif.o(.data)
    netif_list                               0x200000ec   Data           4  netif.o(.data)
    netif_default                            0x200000f0   Data           4  netif.o(.data)
    recv_data                                0x20000116   Data           2  ssnp_for_app.o(.data)
    temp_trx                                 0x20000118   Data           2  ssnp_for_app.o(.data)
    item                                     0x2000011a   Data           4  ssnp_for_app.o(.data)
    as_list                                  0x20000124   Data           4  alias_state.o(.data)
    __stdout                                 0x20000130   Data           4  stdout.o(.data)
    test_time                                0x20000660   Data        2400  uctsk_ssnp_tbc.o(.bss)
    TBIM_recv                                0x20000fc0   Data          40  uctsk_ssnp_tbc.o(.bss)
    OSEventTbl                               0x20001014   Data         480  os_core.o(.bss)
    OSFlagTbl                                0x200011f4   Data          80  os_core.o(.bss)
    OSTaskStatStk                            0x20001244   Data         256  os_core.o(.bss)
    OSTaskIdleStk                            0x20001344   Data         128  os_core.o(.bss)
    OSTCBPrioTbl                             0x200013c4   Data         256  os_core.o(.bss)
    OSTCBTbl                                 0x200014c4   Data        1936  os_core.o(.bss)
    OSMemTbl                                 0x20001c54   Data         120  os_core.o(.bss)
    OSQTbl                                   0x20001ccc   Data          96  os_core.o(.bss)
    OSTmrTbl                                 0x20001d2c   Data         640  os_core.o(.bss)
    OSTmrTaskStk                             0x20001fac   Data         256  os_core.o(.bss)
    OSTmrWheelTbl                            0x200020ac   Data          64  os_core.o(.bss)
    DMARxDscrTab                             0x200020ec   Data          64  ethernetif.o(.bss)
    DMATxDscrTab                             0x2000212c   Data          32  ethernetif.o(.bss)
    Rx_Buff                                  0x2000214c   Data        6080  ethernetif.o(.bss)
    Tx_Buff                                  0x2000390c   Data        3040  ethernetif.o(.bss)
    RAM                                      0x200044ec   Data       10268  mem.o(.bss)
    SSNP_TASK_STK                            0x2000a9d4   Data        3600  sys_arch.o(.bss)
    tbc                                      0x2000da24   Data        6676  tbc.o(.bss)
    __initial_sp                             0x2000fc38   Data           0  startup_stm32f10x_cl.o(STACK)



==============================================================================

Memory Map of the image

  Image Entry point : 0x08000151

  Load Region LR_IROM1 (Base: 0x08000000, Size: 0x00009078, Max: 0x00040000, ABSOLUTE, COMPRESSED[0x00008f64])

    Execution Region ER_IROM1 (Base: 0x08000000, Size: 0x00008f44, Max: 0x00040000, ABSOLUTE)

    Base Addr    Size         Type   Attr      Idx    E Section Name        Object

    0x08000000   0x00000150   Data   RO         4491    RESET               startup_stm32f10x_cl.o
    0x08000150   0x00000000   Code   RO         7957  * .ARM.Collect$$$$00000000  mc_w.l(entry.o)
    0x08000150   0x00000004   Code   RO         8229    .ARM.Collect$$$$00000001  mc_w.l(entry2.o)
    0x08000154   0x00000004   Code   RO         8232    .ARM.Collect$$$$00000004  mc_w.l(entry5.o)
    0x08000158   0x00000008   Code   RO         8233    .ARM.Collect$$$$00000007  mc_w.l(entry7.o)
    0x08000160   0x00000004   Code   RO         8230    .ARM.Collect$$$$00002712  mc_w.l(entry2.o)
    0x08000164   0x00000024   Code   RO         4492    .text               startup_stm32f10x_cl.o
    0x08000188   0x000000a4   Code   RO         4614    .text               os_cpu_a.o
    0x0800022c   0x0000002a   Code   RO         5509    .text               cpu_a.o
    0x08000256   0x00000024   Code   RO         7960    .text               mc_w.l(memcpya.o)
    0x0800027a   0x00000026   Code   RO         7962    .text               mc_w.l(memseta.o)
    0x080002a0   0x0000002c   Code   RO         8235    .text               mc_w.l(uidiv.o)
    0x080002cc   0x00000066   Code   RO         8237    .text               mc_w.l(uldiv.o)
    0x08000332   0x00000000   Code   RO         8246    .text               mc_w.l(iusefp.o)
    0x08000332   0x000000c2   Code   RO         8247    .text               mf_w.l(depilogue.o)
    0x080003f4   0x0000014a   Code   RO         8249    .text               mf_w.l(dadd.o)
    0x0800053e   0x000000e2   Code   RO         8251    .text               mf_w.l(dmul.o)
    0x08000620   0x000000de   Code   RO         8253    .text               mf_w.l(ddiv.o)
    0x080006fe   0x00000030   Code   RO         8257    .text               mf_w.l(dfixul.o)
    0x0800072e   0x00000002   PAD
    0x08000730   0x00000028   Code   RO         8261    .text               mf_w.l(cdrcmple.o)
    0x08000758   0x00000024   Code   RO         8263    .text               mc_w.l(init.o)
    0x0800077c   0x0000001e   Code   RO         8265    .text               mc_w.l(llshl.o)
    0x0800079a   0x00000020   Code   RO         8267    .text               mc_w.l(llushr.o)
    0x080007ba   0x00000024   Code   RO         8269    .text               mc_w.l(llsshr.o)
    0x080007de   0x0000005c   Code   RO         8279    .text               mc_w.l(__dczerorl2.o)
    0x0800083a   0x00000002   PAD
    0x0800083c   0x0000001c   Code   RO          204    i.App_SSNPTaskCreate  uctsk_ssnp_tbc.o
    0x08000858   0x00000002   Code   RO         5407    i.App_TCBInitHook   os_apphooks.o
    0x0800085a   0x00000008   Code   RO            1    i.App_TaskCreate    main.o
    0x08000862   0x00000002   Code   RO         5408    i.App_TaskCreateHook  os_apphooks.o
    0x08000864   0x00000002   Code   RO         5410    i.App_TaskIdleHook  os_apphooks.o
    0x08000866   0x0000001c   Code   RO            2    i.App_TaskStart     main.o
    0x08000882   0x00000002   Code   RO         5412    i.App_TaskStatHook  os_apphooks.o
    0x08000884   0x00000002   Code   RO         5413    i.App_TaskSwHook    os_apphooks.o
    0x08000886   0x00000002   Code   RO         5414    i.App_TimeTickHook  os_apphooks.o
    0x08000888   0x00000004   Code   RO          129    i.BusFault_Handler  stm32f10x_it.o
    0x0800088c   0x00000002   Code   RO          130    i.DebugMon_Handler  stm32f10x_it.o
    0x0800088e   0x00000012   Code   RO          205    i.Delay             uctsk_ssnp_tbc.o
    0x080008a0   0x00000012   Code   RO         7536    i.Delay             tbc.o
    0x080008b2   0x00000002   PAD
    0x080008b4   0x0000000c   Code   RO         3838    i.ETH_DMAClearITPendingBit  stm32_eth.o
    0x080008c0   0x00000020   Code   RO         3839    i.ETH_DMAITConfig   stm32_eth.o
    0x080008e0   0x00000024   Code   RO         3842    i.ETH_DMAReceptionCmd  stm32_eth.o
    0x08000904   0x00000054   Code   RO         3843    i.ETH_DMARxDescChainInit  stm32_eth.o
    0x08000958   0x00000016   Code   RO         3845    i.ETH_DMARxDescReceiveITConfig  stm32_eth.o
    0x0800096e   0x00000002   PAD
    0x08000970   0x00000024   Code   RO         3848    i.ETH_DMATransmissionCmd  stm32_eth.o
    0x08000994   0x00000050   Code   RO         3851    i.ETH_DMATxDescChainInit  stm32_eth.o
    0x080009e4   0x00000016   Code   RO         3860    i.ETH_DeInit        stm32_eth.o
    0x080009fa   0x0000000e   Code   RO         3861    i.ETH_Delay         stm32_eth.o
    0x08000a08   0x00000014   Code   RO         3866    i.ETH_FlushTransmitFIFO  stm32_eth.o
    0x08000a1c   0x0000000c   Code   RO         6209    i.ETH_GetCurrentTxBuffer  ethernetif.o
    0x08000a28   0x0000000a   Code   RO         3877    i.ETH_GetDMARxDescFrameLength  stm32_eth.o
    0x08000a32   0x00000002   PAD
    0x08000a34   0x00000048   Code   RO         3892    i.ETH_GetRxPktSize  stm32_eth.o
    0x08000a7c   0x00000018   Code   RO         3893    i.ETH_GetSoftwareResetStatus  stm32_eth.o
    0x08000a94   0x00000044   Code   RO         7273    i.ETH_IRQHandler    ssnp_for_app.o
    0x08000ad8   0x0000024c   Code   RO         3900    i.ETH_Init          stm32_eth.o
    0x08000d24   0x00000034   Code   RO         3903    i.ETH_MACAddressConfig  stm32_eth.o
    0x08000d58   0x00000024   Code   RO         3908    i.ETH_MACReceptionCmd  stm32_eth.o
    0x08000d7c   0x00000024   Code   RO         3909    i.ETH_MACTransmissionCmd  stm32_eth.o
    0x08000da0   0x00000060   Code   RO         3920    i.ETH_ReadPHYRegister  stm32_eth.o
    0x08000e00   0x0000009c   Code   RO         6210    i.ETH_RxPkt_ChainMode  ethernetif.o
    0x08000e9c   0x00000014   Code   RO         3931    i.ETH_SoftwareReset  stm32_eth.o
    0x08000eb0   0x00000020   Code   RO         3932    i.ETH_Start         stm32_eth.o
    0x08000ed0   0x000000a4   Code   RO         3933    i.ETH_StructInit    stm32_eth.o
    0x08000f74   0x00000068   Code   RO         6211    i.ETH_TxPkt_ChainMode  ethernetif.o
    0x08000fdc   0x00000060   Code   RO         3935    i.ETH_WritePHYRegister  stm32_eth.o
    0x0800103c   0x000000a0   Code   RO         7274    i.Ethernet_Configuration  ssnp_for_app.o
    0x080010dc   0x0000000c   Code   RO         1018    i.GPIO_ETH_MediaInterfaceConfig  stm32f10x_gpio.o
    0x080010e8   0x00000112   Code   RO         1022    i.GPIO_Init         stm32f10x_gpio.o
    0x080011fa   0x00000002   PAD
    0x080011fc   0x00000090   Code   RO         1024    i.GPIO_PinRemapConfig  stm32f10x_gpio.o
    0x0800128c   0x00000004   Code   RO          131    i.HardFault_Handler  stm32f10x_it.o
    0x08001290   0x0000003c   Code   RO          555    i.I2C_Ack           i2c_fram.o
    0x080012cc   0x0000012a   Code   RO          556    i.I2C_BufferWrite   i2c_fram.o
    0x080013f6   0x00000002   PAD
    0x080013f8   0x000000a8   Code   RO          557    i.I2C_FRAM_BufferRead  i2c_fram.o
    0x080014a0   0x00000054   Code   RO          559    i.I2C_Fram_PageWrite  i2c_fram.o
    0x080014f4   0x0000003c   Code   RO          560    i.I2C_NoAck         i2c_fram.o
    0x08001530   0x0000005c   Code   RO          561    i.I2C_ReceiveByte   i2c_fram.o
    0x0800158c   0x00000054   Code   RO          562    i.I2C_SendByte      i2c_fram.o
    0x080015e0   0x00000064   Code   RO          563    i.I2C_Start         i2c_fram.o
    0x08001644   0x0000003c   Code   RO          564    i.I2C_Stop          i2c_fram.o
    0x08001680   0x00000054   Code   RO          565    i.I2C_WaitAck       i2c_fram.o
    0x080016d4   0x0000001e   Code   RO          566    i.I2C_delay         i2c_fram.o
    0x080016f2   0x00000002   PAD
    0x080016f4   0x000000b8   Code   RO         6049    i.InitiateDiscovery  ethbcp.o
    0x080017ac   0x00000004   Code   RO          132    i.MemManage_Handler  stm32f10x_it.o
    0x080017b0   0x00000002   Code   RO          133    i.NMI_Handler       stm32f10x_it.o
    0x080017b2   0x00000026   Code   RO         7275    i.NVIC_Configuration  ssnp_for_app.o
    0x080017d8   0x00000026   Code   RO          206    i.NVIC_Configuration_TIM5  uctsk_ssnp_tbc.o
    0x080017fe   0x00000028   Code   RO         7276    i.NVIC_Configuration_USART2  ssnp_for_app.o
    0x08001826   0x00000002   PAD
    0x08001828   0x00000084   Code   RO          803    i.NVIC_Init         misc.o
    0x080018ac   0x00000014   Code   RO          804    i.NVIC_PriorityGroupConfig  misc.o
    0x080018c0   0x0000015c   Code   RO         4496    i.OSDebugInit       os_dbg.o
    0x08001a1c   0x00000068   Code   RO         4618    i.OSEventNameSet    os_core.o
    0x08001a84   0x00000038   Code   RO         4620    i.OSInit            os_core.o
    0x08001abc   0x0000000c   Code   RO         4517    i.OSInitHookBegin   os_cpu_c.o
    0x08001ac8   0x00000002   Code   RO         4518    i.OSInitHookEnd     os_cpu_c.o
    0x08001aca   0x00000002   PAD
    0x08001acc   0x00000090   Code   RO         4622    i.OSIntExit         os_core.o
    0x08001b5c   0x000000a8   Code   RO         4964    i.OSMemCreate       os_mem.o
    0x08001c04   0x00000048   Code   RO         4965    i.OSMemGet          os_mem.o
    0x08001c4c   0x00000042   Code   RO         4968    i.OSMemPut          os_mem.o
    0x08001c8e   0x00000062   Code   RO         5059    i.OSQAccept         os_q.o
    0x08001cf0   0x000000a0   Code   RO         5060    i.OSQCreate         os_q.o
    0x08001d90   0x00000110   Code   RO         5061    i.OSQDel            os_q.o
    0x08001ea0   0x00000034   Code   RO         5062    i.OSQFlush          os_q.o
    0x08001ed4   0x0000012c   Code   RO         5063    i.OSQPend           os_q.o
    0x08002000   0x00000078   Code   RO         5065    i.OSQPost           os_q.o
    0x08002078   0x00000040   Code   RO         4623    i.OSSchedLock       os_core.o
    0x080020b8   0x00000060   Code   RO         4624    i.OSSchedUnlock     os_core.o
    0x08002118   0x00000054   Code   RO         5132    i.OSSemCreate       os_sem.o
    0x0800216c   0x000000e8   Code   RO         5133    i.OSSemDel          os_sem.o
    0x08002254   0x000000f8   Code   RO         5134    i.OSSemPend         os_sem.o
    0x0800234c   0x0000005e   Code   RO         5136    i.OSSemPost         os_sem.o
    0x080023aa   0x00000002   PAD
    0x080023ac   0x00000048   Code   RO         4625    i.OSStart           os_core.o
    0x080023f4   0x0000004c   Code   RO         4626    i.OSStatInit        os_core.o
    0x08002440   0x0000000c   Code   RO         4519    i.OSTCBInitHook     os_cpu_c.o
    0x0800244c   0x000000a8   Code   RO         5186    i.OSTaskCreate      os_task.o
    0x080024f4   0x000000c0   Code   RO         5187    i.OSTaskCreateExt   os_task.o
    0x080025b4   0x0000000c   Code   RO         4520    i.OSTaskCreateHook  os_cpu_c.o
    0x080025c0   0x00000008   Code   RO         4522    i.OSTaskIdleHook    os_cpu_c.o
    0x080025c8   0x00000084   Code   RO         5191    i.OSTaskNameSet     os_task.o
    0x0800264c   0x00000008   Code   RO         4523    i.OSTaskStatHook    os_cpu_c.o
    0x08002654   0x000000a0   Code   RO         5196    i.OSTaskStkChk      os_task.o
    0x080026f4   0x0000009a   Code   RO         4524    i.OSTaskStkInit     os_cpu_c.o
    0x0800278e   0x00000002   PAD
    0x08002790   0x000000c4   Code   RO         5197    i.OSTaskSuspend     os_task.o
    0x08002854   0x00000008   Code   RO         4525    i.OSTaskSwHook      os_cpu_c.o
    0x0800285c   0x00000080   Code   RO         5281    i.OSTimeDly         os_time.o
    0x080028dc   0x00000084   Code   RO         5282    i.OSTimeDlyHMSM     os_time.o
    0x08002960   0x0000001c   Code   RO         5284    i.OSTimeGet         os_time.o
    0x0800297c   0x000000f4   Code   RO         4627    i.OSTimeTick        os_core.o
    0x08002a70   0x00000028   Code   RO         4526    i.OSTimeTickHook    os_cpu_c.o
    0x08002a98   0x00000014   Code   RO         5321    i.OSTmrSignal       os_tmr.o
    0x08002aac   0x000000f4   Code   RO         5327    i.OSTmr_Init        os_tmr.o
    0x08002ba0   0x00000050   Code   RO         5328    i.OSTmr_InitTask    os_tmr.o
    0x08002bf0   0x0000006c   Code   RO         5329    i.OSTmr_Link        os_tmr.o
    0x08002c5c   0x00000080   Code   RO         5330    i.OSTmr_Task        os_tmr.o
    0x08002cdc   0x00000044   Code   RO         5331    i.OSTmr_Unlink      os_tmr.o
    0x08002d20   0x00000064   Code   RO         4529    i.OS_CPU_SysTickInit  os_cpu_c.o
    0x08002d84   0x0000009c   Code   RO         4630    i.OS_EventTaskRdy   os_core.o
    0x08002e20   0x00000032   Code   RO         4631    i.OS_EventTaskRemove  os_core.o
    0x08002e52   0x00000050   Code   RO         4632    i.OS_EventTaskRemoveMulti  os_core.o
    0x08002ea2   0x00000002   PAD
    0x08002ea4   0x00000084   Code   RO         4633    i.OS_EventTaskWait  os_core.o
    0x08002f28   0x0000001c   Code   RO         4635    i.OS_EventWaitListInit  os_core.o
    0x08002f44   0x00000058   Code   RO         4838    i.OS_FlagInit       os_flag.o
    0x08002f9c   0x00000060   Code   RO         4636    i.OS_InitEventList  os_core.o
    0x08002ffc   0x00000054   Code   RO         4637    i.OS_InitMisc       os_core.o
    0x08003050   0x00000044   Code   RO         4638    i.OS_InitRdyList    os_core.o
    0x08003094   0x00000080   Code   RO         4639    i.OS_InitTCBList    os_core.o
    0x08003114   0x00000050   Code   RO         4640    i.OS_InitTaskIdle   os_core.o
    0x08003164   0x00000050   Code   RO         4641    i.OS_InitTaskStat   os_core.o
    0x080031b4   0x00000012   Code   RO         4642    i.OS_MemClr         os_core.o
    0x080031c6   0x00000002   PAD
    0x080031c8   0x00000058   Code   RO         4970    i.OS_MemInit        os_mem.o
    0x08003220   0x00000050   Code   RO         5069    i.OS_QInit          os_q.o
    0x08003270   0x00000074   Code   RO         4644    i.OS_Sched          os_core.o
    0x080032e4   0x0000002c   Code   RO         4645    i.OS_SchedNew       os_core.o
    0x08003310   0x00000144   Code   RO         4647    i.OS_TCBInit        os_core.o
    0x08003454   0x00000028   Code   RO         4648    i.OS_TaskIdle       os_core.o
    0x0800347c   0x00000088   Code   RO         4649    i.OS_TaskStat       os_core.o
    0x08003504   0x0000003c   Code   RO         4650    i.OS_TaskStatStkChk  os_core.o
    0x08003540   0x0000001a   Code   RO         5199    i.OS_TaskStkClr     os_task.o
    0x0800355a   0x00000002   PAD
    0x0800355c   0x00000020   Code   RO         1131    i.RCC_AHBPeriphClockCmd  stm32f10x_rcc.o
    0x0800357c   0x00000020   Code   RO         1132    i.RCC_AHBPeriphResetCmd  stm32f10x_rcc.o
    0x0800359c   0x00000020   Code   RO         1133    i.RCC_APB1PeriphClockCmd  stm32f10x_rcc.o
    0x080035bc   0x00000020   Code   RO         1135    i.RCC_APB2PeriphClockCmd  stm32f10x_rcc.o
    0x080035dc   0x00000190   Code   RO         1143    i.RCC_GetClocksFreq  stm32f10x_rcc.o
    0x0800376c   0x0000003c   Code   RO         1144    i.RCC_GetFlagStatus  stm32f10x_rcc.o
    0x080037a8   0x0000000c   Code   RO         1155    i.RCC_MCOConfig     stm32f10x_rcc.o
    0x080037b4   0x0000000c   Code   RO         1161    i.RCC_PLL3Cmd       stm32f10x_rcc.o
    0x080037c0   0x00000018   Code   RO         1162    i.RCC_PLL3Config    stm32f10x_rcc.o
    0x080037d8   0x00000002   Code   RO          134    i.SVC_Handler       stm32f10x_it.o
    0x080037da   0x00000008   Code   RO         4455    i.SetSysClock       system_stm32f10x.o
    0x080037e2   0x00000002   PAD
    0x080037e4   0x00000100   Code   RO         4456    i.SetSysClockTo72   system_stm32f10x.o
    0x080038e4   0x00000028   Code   RO          135    i.SysTick_Handler   stm32f10x_it.o
    0x0800390c   0x0000006c   Code   RO         4458    i.SystemInit        system_stm32f10x.o
    0x08003978   0x00000068   Code   RO         6050    i.TBC_DLL_init      ethbcp.o
    0x080039e0   0x00000020   Code   RO         7537    i.TBC_init          tbc.o
    0x08003a00   0x00000024   Code   RO         7539    i.TBC_send_cmd_to_tbim  tbc.o
    0x08003a24   0x00000024   Code   RO         7540    i.TBC_send_noArguCmd_to_tbim  tbc.o
    0x08003a48   0x00000022   Code   RO         7541    i.TBC_send_noArgucmd  tbc.o
    0x08003a6a   0x00000018   Code   RO         7544    i.TBC_send_upcomputer_cmd  tbc.o
    0x08003a82   0x0000002a   Code   RO         7545    i.TBIM_recongnition  tbc.o
    0x08003aac   0x00000044   Code   RO          207    i.TIM5_IRQHandler   uctsk_ssnp_tbc.o
    0x08003af0   0x00000044   Code   RO          208    i.TIM5_Init         uctsk_ssnp_tbc.o
    0x08003b34   0x00000006   Code   RO         3062    i.TIM_ClearITPendingBit  stm32f10x_tim.o
    0x08003b3a   0x00000018   Code   RO         3067    i.TIM_Cmd           stm32f10x_tim.o
    0x08003b52   0x00000006   Code   RO         3086    i.TIM_GetCounter    stm32f10x_tim.o
    0x08003b58   0x00000022   Code   RO         3088    i.TIM_GetITStatus   stm32f10x_tim.o
    0x08003b7a   0x00000018   Code   RO         3092    i.TIM_ITConfig      stm32f10x_tim.o
    0x08003b92   0x00000002   PAD
    0x08003b94   0x000000a4   Code   RO         3138    i.TIM_TimeBaseInit  stm32f10x_tim.o
    0x08003c38   0x00000002   Code   RO          136    i.USART1_IRQHandler  stm32f10x_it.o
    0x08003c3a   0x00000002   PAD
    0x08003c3c   0x000001a8   Code   RO         7277    i.USART2_IRQHandler  ssnp_for_app.o
    0x08003de4   0x00000012   Code   RO         3599    i.USART_ClearFlag   stm32f10x_usart.o
    0x08003df6   0x0000001e   Code   RO         3600    i.USART_ClearITPendingBit  stm32f10x_usart.o
    0x08003e14   0x00000018   Code   RO         3603    i.USART_Cmd         stm32f10x_usart.o
    0x08003e2c   0x000000a0   Code   RO         7278    i.USART_Configuration  ssnp_for_app.o
    0x08003ecc   0x0000001a   Code   RO         3606    i.USART_GetFlagStatus  stm32f10x_usart.o
    0x08003ee6   0x00000054   Code   RO         3607    i.USART_GetITStatus  stm32f10x_usart.o
    0x08003f3a   0x0000004a   Code   RO         3609    i.USART_ITConfig    stm32f10x_usart.o
    0x08003f84   0x000000d8   Code   RO         3610    i.USART_Init        stm32f10x_usart.o
    0x0800405c   0x0000000a   Code   RO         3617    i.USART_ReceiveData  stm32f10x_usart.o
    0x08004066   0x00000008   Code   RO         3620    i.USART_SendData    stm32f10x_usart.o
    0x0800406e   0x00000004   Code   RO          137    i.UsageFault_Handler  stm32f10x_it.o
    0x08004072   0x00000002   PAD
    0x08004074   0x00000020   Code   RO         8199    i.__0printf         mc_w.l(printfa.o)
    0x08004094   0x0000000e   Code   RO         8273    i.__scatterload_copy  mc_w.l(handlers.o)
    0x080040a2   0x00000002   Code   RO         8274    i.__scatterload_null  mc_w.l(handlers.o)
    0x080040a4   0x0000000e   Code   RO         8275    i.__scatterload_zeroinit  mc_w.l(handlers.o)
    0x080040b2   0x00000002   PAD
    0x080040b4   0x00000154   Code   RO         8206    i._fp_digits        mc_w.l(printfa.o)
    0x08004208   0x000006d4   Code   RO         8207    i._printf_core      mc_w.l(printfa.o)
    0x080048dc   0x00000026   Code   RO         8208    i._printf_post_padding  mc_w.l(printfa.o)
    0x08004902   0x0000002e   Code   RO         8209    i._printf_pre_padding  mc_w.l(printfa.o)
    0x08004930   0x0000005c   Code   RO         7476    i.add_alias_pending  alias_state.o
    0x0800498c   0x00000070   Code   RO         5903    i.add_pad_pbuf      dp.o
    0x080049fc   0x00000070   Code   RO         7842    i.add_pad_pbuf      sdp.o
    0x08004a6c   0x00000006   Code   RO         5904    i.addr_check        dp.o
    0x08004a72   0x00000006   Code   RO         7843    i.addr_check        sdp.o
    0x08004a78   0x0000000a   Code   RO         7125    i.alias_alloc_finish  timer.o
    0x08004a82   0x00000002   PAD
    0x08004a84   0x00000024   Code   RO         7126    i.alias_check_timer  timer.o
    0x08004aa8   0x000000c8   Code   RO         7477    i.alias_done        alias_state.o
    0x08004b70   0x00000050   Code   RO         7448    i.alloc_alias_map   alias_map.o
    0x08004bc0   0x00000108   Code   RO          210    i.app_init          uctsk_ssnp_tbc.o
    0x08004cc8   0x00000048   Code   RO         7478    i.clear_unresponsive_alias  alias_state.o
    0x08004d10   0x00000014   Code   RO         7479    i.copy_uuid         alias_state.o
    0x08004d24   0x00000238   Code   RO         7546    i.create_TBIM       tbc.o
    0x08004f5c   0x0000005c   Code   RO          430    i.deQueue           upcomputer.o
    0x08004fb8   0x00000030   Code   RO         7449    i.del_alias_map     alias_map.o
    0x08004fe8   0x0000005c   Code   RO         7480    i.delete_alias      alias_state.o
    0x08005044   0x00000072   Code   RO         5802    i.do_bind           api_msg.o
    0x080050b6   0x00000064   Code   RO         5803    i.do_connect        api_msg.o
    0x0800511a   0x00000018   Code   RO         5806    i.do_get_alias_alloc_state  api_msg.o
    0x08005132   0x0000001e   Code   RO         5807    i.do_newconn        api_msg.o
    0x08005150   0x000000c4   Code   RO         5808    i.do_send           api_msg.o
    0x08005214   0x00000038   Code   RO         5906    i.dp_bind           dp.o
    0x0800524c   0x00000038   Code   RO         5907    i.dp_connect        dp.o
    0x08005284   0x000003e4   Code   RO         5910    i.dp_input          dp.o
    0x08005668   0x00000018   Code   RO         5911    i.dp_new            dp.o
    0x08005680   0x00000006   Code   RO         5913    i.dp_recv           dp.o
    0x08005686   0x0000002e   Code   RO         5916    i.dp_sendto         dp.o
    0x080056b4   0x000001b4   Code   RO         5917    i.dp_sendto_if      dp.o
    0x08005868   0x00000004   Code   RO         6051    i.ethbcp_FCS_check  ethbcp.o
    0x0800586c   0x00000208   Code   RO         6052    i.ethbcp_input      ethbcp.o
    0x08005a74   0x0000005c   Code   RO         6053    i.ethbcp_input_check  ethbcp.o
    0x08005ad0   0x000000c0   Code   RO         6054    i.ethbcp_output     ethbcp.o
    0x08005b90   0x0000012c   Code   RO         7279    i.ethernet_initialize  ssnp_for_app.o
    0x08005cbc   0x000001bc   Code   RO         6055    i.ethernet_input    ethbcp.o
    0x08005e78   0x00000078   Code   RO         6212    i.ethernetif_init   ethernetif.o
    0x08005ef0   0x00000068   Code   RO         6213    i.ethernetif_input  ethernetif.o
    0x08005f58   0x00000020   Code   RO         7481    i.find              alias_state.o
    0x08005f78   0x00000038   Code   RO         7547    i.find_tbim         tbc.o
    0x08005fb0   0x00000024   Code   RO          213    i.fputc             uctsk_ssnp_tbc.o
    0x08005fd4   0x000000c6   Code   RO         7548    i.get_TBIM_meta_TEDS  tbc.o
    0x0800609a   0x00000002   PAD
    0x0800609c   0x00000094   Code   RO         7549    i.get_TBIM_struct   tbc.o
    0x08006130   0x00000110   Code   RO         7550    i.get_TBIM_tdcn_TEDS  tbc.o
    0x08006240   0x0000000c   Code   RO         6056    i.get_alias_alloc_state  ethbcp.o
    0x0800624c   0x0000000c   Code   RO         7482    i.get_alias_done_list  alias_state.o
    0x08006258   0x00000034   Code   RO         6057    i.get_done_list     ethbcp.o
    0x0800628c   0x00000120   Code   RO         7551    i.get_epoch         tbc.o
    0x080063ac   0x0000002c   Code   RO         5642    i.get_tbim          api_lib.o
    0x080063d8   0x00000008   Code   RO         7280    i.hardware_init     ssnp_for_app.o
    0x080063e0   0x00000006   Code   RO         6274    i.inet_chksum       inet_chksum.o
    0x080063e6   0x00000002   PAD
    0x080063e8   0x00000010   Code   RO          433    i.init_queue        upcomputer.o
    0x080063f8   0x00000030   Code   RO         5918    i.ip_route          dp.o
    0x08006428   0x00000030   Code   RO         7187    i.ip_route          tp.o
    0x08006458   0x00000030   Code   RO         7846    i.ip_route          sdp.o
    0x08006488   0x00000014   Code   RO          434    i.isQempty          upcomputer.o
    0x0800649c   0x0000001a   Code   RO         7483    i.is_exist_in_pending_list  alias_state.o
    0x080064b6   0x00000002   PAD
    0x080064b8   0x0000000c   Code   RO         6058    i.is_reflect_reply_ok  ethbcp.o
    0x080064c4   0x0000000e   Code   RO         5919    i.isbroadcast       dp.o
    0x080064d2   0x0000000e   Code   RO         7188    i.isbroadcast       tp.o
    0x080064e0   0x0000000e   Code   RO         7847    i.isbroadcast       sdp.o
    0x080064ee   0x00000002   PAD
    0x080064f0   0x00000078   Code   RO         6214    i.low_level_init    ethernetif.o
    0x08006568   0x00000068   Code   RO         6215    i.low_level_input   ethernetif.o
    0x080065d0   0x00000042   Code   RO         6216    i.low_level_output  ethernetif.o
    0x08006612   0x00000002   PAD
    0x08006614   0x0000005c   Code   RO            3    i.main              main.o
    0x08006670   0x00000108   Code   RO         6326    i.mem_alloc         mem.o
    0x08006778   0x0000005c   Code   RO         6327    i.mem_free          mem.o
    0x080067d4   0x00000068   Code   RO         6328    i.mem_init          mem.o
    0x0800683c   0x0000010c   Code   RO         6329    i.mem_trim          mem.o
    0x08006948   0x0000002c   Code   RO         6368    i.memp_alloc        memp.o
    0x08006974   0x00000034   Code   RO         6369    i.memp_free         memp.o
    0x080069a8   0x00000058   Code   RO         6370    i.memp_init         memp.o
    0x08006a00   0x00000042   Code   RO         5643    i.neconn_recv_data  api_lib.o
    0x08006a42   0x0000001e   Code   RO         6415    i.netbuf_delete     netbuf.o
    0x08006a60   0x00000014   Code   RO         6416    i.netbuf_free       netbuf.o
    0x08006a74   0x00000038   Code   RO         6418    i.netbuf_ref        netbuf.o
    0x08006aac   0x000000d0   Code   RO         5644    i.netconn_alloc     api_lib.o
    0x08006b7c   0x00000038   Code   RO         5645    i.netconn_bind      api_lib.o
    0x08006bb4   0x00000038   Code   RO         5646    i.netconn_connect   api_lib.o
    0x08006bec   0x00000040   Code   RO         5650    i.netconn_new       api_lib.o
    0x08006c2c   0x00000028   Code   RO         5651    i.netconn_recv      api_lib.o
    0x08006c54   0x00000038   Code   RO         5656    i.netconn_send      api_lib.o
    0x08006c8c   0x00000024   Code   RO         5657    i.netconn_sendto    api_lib.o
    0x08006cb0   0x00000080   Code   RO         6458    i.netif_add         netif.o
    0x08006d30   0x00000002   Code   RO         6460    i.netif_init        netif.o
    0x08006d32   0x00000002   PAD
    0x08006d34   0x0000000c   Code   RO         6463    i.netif_set_default  netif.o
    0x08006d40   0x00000190   Code   RO         6506    i.pbuf_alloc        pbuf.o
    0x08006ed0   0x00000024   Code   RO         6507    i.pbuf_cat          pbuf.o
    0x08006ef4   0x00000016   Code   RO         6508    i.pbuf_chain        pbuf.o
    0x08006f0a   0x0000006c   Code   RO         6514    i.pbuf_free         pbuf.o
    0x08006f76   0x0000006a   Code   RO         6515    i.pbuf_header       pbuf.o
    0x08006fe0   0x00000064   Code   RO         6516    i.pbuf_realloc      pbuf.o
    0x08007044   0x0000001a   Code   RO         6517    i.pbuf_ref          pbuf.o
    0x0800705e   0x00000002   PAD
    0x08007060   0x0000008c   Code   RO         5810    i.pcb_new           api_msg.o
    0x080070ec   0x00000078   Code   RO         6330    i.plug_holes        mem.o
    0x08007164   0x00000068   Code   RO         7281    i.protocol_init     ssnp_for_app.o
    0x080071cc   0x0000001c   Code   RO         6286    i.protocol_stack_init  init.o
    0x080071e8   0x00000058   Code   RO         5811    i.recv_dp           api_msg.o
    0x08007240   0x000000b4   Code   RO         5812    i.recv_sdp          api_msg.o
    0x080072f4   0x0000004c   Code   RO         5813    i.recv_tp           api_msg.o
    0x08007340   0x00000038   Code   RO         7848    i.sdp_bind          sdp.o
    0x08007378   0x00000038   Code   RO         7849    i.sdp_connect       sdp.o
    0x080073b0   0x00000314   Code   RO         7851    i.sdp_input         sdp.o
    0x080076c4   0x00000018   Code   RO         7852    i.sdp_new           sdp.o
    0x080076dc   0x00000006   Code   RO         7853    i.sdp_recv          sdp.o
    0x080076e2   0x0000002e   Code   RO         7856    i.sdp_sendto        sdp.o
    0x08007710   0x000001cc   Code   RO         7857    i.sdp_sendto_if     sdp.o
    0x080078dc   0x000000d4   Code   RO         6059    i.send_assign_alias_msg  ethbcp.o
    0x080079b0   0x000000e4   Code   RO         6060    i.send_assign_time_slot_msg  ethbcp.o
    0x08007a94   0x000000b8   Code   RO         6061    i.send_begin_of_epoch_msg  ethbcp.o
    0x08007b4c   0x00000046   Code   RO         7552    i.send_cmd_to_tbim  tbc.o
    0x08007b92   0x00000002   PAD
    0x08007b94   0x000000dc   Code   RO         6062    i.send_define_epoch_msg  ethbcp.o
    0x08007c70   0x00000010   Code   RO         7282    i.send_discovery_msg  ssnp_for_app.o
    0x08007c80   0x0000004e   Code   RO         7553    i.send_noArguCmd_to_tbim  tbc.o
    0x08007cce   0x00000002   PAD
    0x08007cd0   0x000000bc   Code   RO         6063    i.send_reflect_msg  ethbcp.o
    0x08007d8c   0x0000003c   Code   RO          437    i.send_sdp_upcomputer  upcomputer.o
    0x08007dc8   0x00000058   Code   RO         7555    i.send_timeslot_msg  tbc.o
    0x08007e20   0x00000030   Code   RO          438    i.send_upcomputer   upcomputer.o
    0x08007e50   0x0000000c   Code   RO         6064    i.set_alias_alloc_done  ethbcp.o
    0x08007e5c   0x0000000c   Code   RO         5659    i.set_connection_recvmbox  api_lib.o
    0x08007e68   0x00000024   Code   RO         6217    i.set_mac_address   ethernetif.o
    0x08007e8c   0x0000000c   Code   RO         6065    i.set_reflect_reply_unfinished  ethbcp.o
    0x08007e98   0x00000002   Code   RO         6066    i.set_status_word_bad_frame_received  ethbcp.o
    0x08007e9a   0x00000002   Code   RO         5920    i.set_status_word_protocol_error  dp.o
    0x08007e9c   0x00000002   Code   RO         7858    i.set_status_word_protocol_error  sdp.o
    0x08007e9e   0x00000002   PAD
    0x08007ea0   0x00000010   Code   RO         7556    i.set_syn_asyn_num  tbc.o
    0x08007eb0   0x00000038   Code   RO         6590    i.ssnp_apimsg       ssnp.o
    0x08007ee8   0x00000038   Code   RO         6591    i.ssnp_apimsg_alias_list  ssnp.o
    0x08007f20   0x0000004c   Code   RO         6592    i.ssnp_init         ssnp.o
    0x08007f6c   0x0000000e   Code   RO         7284    i.ssnp_init_done    ssnp_for_app.o
    0x08007f7a   0x00000002   PAD
    0x08007f7c   0x000000ac   Code   RO         6593    i.ssnp_input        ssnp.o
    0x08008028   0x00000090   Code   RO         6594    i.ssnp_thread       ssnp.o
    0x080080b8   0x0000008c   Code   RO         6645    i.sys_arch_mbox_fetch  sys_arch.o
    0x08008144   0x00000014   Code   RO         6646    i.sys_arch_mbox_fetch_unblock  sys_arch.o
    0x08008158   0x0000006c   Code   RO         6647    i.sys_arch_sem_wait  sys_arch.o
    0x080081c4   0x00000024   Code   RO         6648    i.sys_init          sys_arch.o
    0x080081e8   0x00000078   Code   RO         6649    i.sys_mbox_free     sys_arch.o
    0x08008260   0x00000058   Code   RO         6650    i.sys_mbox_new      sys_arch.o
    0x080082b8   0x00000030   Code   RO         6651    i.sys_mbox_post     sys_arch.o
    0x080082e8   0x00000024   Code   RO         6652    i.sys_mbox_trypost  sys_arch.o
    0x0800830c   0x00000010   Code   RO         6653    i.sys_sem_free      sys_arch.o
    0x0800831c   0x00000010   Code   RO         6654    i.sys_sem_new       sys_arch.o
    0x0800832c   0x0000000c   Code   RO         6655    i.sys_sem_signal    sys_arch.o
    0x08008338   0x00000084   Code   RO         6656    i.sys_thread_new    sys_arch.o
    0x080083bc   0x00000008   Code   RO         6657    i.sys_time_get      sys_arch.o
    0x080083c4   0x00000098   Code   RO         7128    i.sys_timeout       timer.o
    0x0800845c   0x00000014   Code   RO         7129    i.sys_timeouts_init  timer.o
    0x08008470   0x0000008c   Code   RO         7130    i.sys_timeouts_mbox_fetch  timer.o
    0x080084fc   0x00000060   Code   RO         7131    i.sys_untimeout     timer.o
    0x0800855c   0x00000010   Code   RO         7285    i.tbc_send_begin_of_epoch_msg  ssnp_for_app.o
    0x0800856c   0x00000018   Code   RO         7286    i.tbc_send_define_epoch_msg  ssnp_for_app.o
    0x08008584   0x00000014   Code   RO         7287    i.tbc_send_reflect_msg  ssnp_for_app.o
    0x08008598   0x00000020   Code   RO         7288    i.tbc_send_timeslot_msg  ssnp_for_app.o
    0x080085b8   0x0000001c   Code   RO         7450    i.test              alias_map.o
    0x080085d4   0x00000008   Code   RO         7557    i.timeslot_alloc    tbc.o
    0x080085dc   0x00000048   Code   RO         7190    i.tp_bind           tp.o
    0x08008624   0x00000038   Code   RO         7191    i.tp_connect        tp.o
    0x0800865c   0x0000022c   Code   RO         7193    i.tp_input          tp.o
    0x08008888   0x00000018   Code   RO         7194    i.tp_new            tp.o
    0x080088a0   0x00000006   Code   RO         7195    i.tp_recv           tp.o
    0x080088a6   0x0000002e   Code   RO         7198    i.tp_sendto         tp.o
    0x080088d4   0x000000e8   Code   RO         7199    i.tp_sendto_if      tp.o
    0x080089bc   0x000002bc   Code   RO          217    i.uctsk_SSNP_TBC_new  uctsk_ssnp_tbc.o
    0x08008c78   0x000000c0   Code   RO         7289    i.writeMetaTeds     ssnp_for_app.o
    0x08008d38   0x00000074   Data   RO         4497    .constdata          os_dbg.o
    0x08008dac   0x00000100   Data   RO         4652    .constdata          os_core.o
    0x08008eac   0x00000030   Data   RO         6372    .constdata          memp.o
    0x08008edc   0x00000004   Data   RO         6659    .constdata          sys_arch.o
    0x08008ee0   0x00000042   Data   RO         7859    .constdata          sdp.o
    0x08008f22   0x00000002   PAD
    0x08008f24   0x00000020   Data   RO         8271    Region$$Table       anon$$obj.o


    Execution Region RW_IRAM1 (Base: 0x20000000, Size: 0x0000fc38, Max: 0x00010000, ABSOLUTE, COMPRESSED[0x00000020])

    Base Addr    Size         Type   Attr      Idx    E Section Name        Object

    0x20000000   0x0000001e   Data   RW          220    .data               uctsk_ssnp_tbc.o
    0x2000001e   0x00000001   Data   RW          567    .data               i2c_fram.o
    0x2000001f   0x00000014   Data   RW         1171    .data               stm32f10x_rcc.o
    0x20000033   0x00000001   PAD
    0x20000034   0x00000010   Data   RW         3936    .data               stm32_eth.o
    0x20000044   0x00000014   Data   RW         4459    .data               system_stm32f10x.o
    0x20000058   0x00000002   Data   RW         4530    .data               os_cpu_c.o
    0x2000005a   0x00000002   PAD
    0x2000005c   0x00000060   Data   RW         4653    .data               os_core.o
    0x200000bc   0x00000004   Data   RW         5921    .data               dp.o
    0x200000c0   0x0000000f   Data   RW         6067    .data               ethbcp.o
    0x200000cf   0x0000000c   Data   RW         6219    .data               ethernetif.o
    0x200000db   0x00000001   PAD
    0x200000dc   0x00000010   Data   RW         6332    .data               mem.o
    0x200000ec   0x00000009   Data   RW         6464    .data               netif.o
    0x200000f5   0x00000003   PAD
    0x200000f8   0x0000000c   Data   RW         6597    .data               ssnp.o
    0x20000104   0x00000004   Data   RW         6660    .data               sys_arch.o
    0x20000108   0x00000004   Data   RW         7132    .data               timer.o
    0x2000010c   0x00000004   Data   RW         7200    .data               tp.o
    0x20000110   0x0000000e   Data   RW         7291    .data               ssnp_for_app.o
    0x2000011e   0x00000006   Data   RW         7451    .data               alias_map.o
    0x20000124   0x00000008   Data   RW         7484    .data               alias_state.o
    0x2000012c   0x00000004   Data   RW         7860    .data               sdp.o
    0x20000130   0x00000004   Data   RW         8234    .data               mc_w.l(stdout.o)
    0x20000134   0x00000100   Zero   RW            4    .bss                main.o
    0x20000234   0x00000db4   Zero   RW          218    .bss                uctsk_ssnp_tbc.o
    0x20000fe8   0x0000002b   Zero   RW          439    .bss                upcomputer.o
    0x20001013   0x00000001   PAD
    0x20001014   0x000010d8   Zero   RW         4651    .bss                os_core.o
    0x200020ec   0x00002400   Zero   RW         6218    .bss                ethernetif.o
    0x200044ec   0x0000281c   Zero   RW         6331    .bss                mem.o
    0x20006d08   0x00003ccb   Zero   RW         6371    .bss                memp.o
    0x2000a9d3   0x00000001   PAD
    0x2000a9d4   0x00002d7b   Zero   RW         6658    .bss                sys_arch.o
    0x2000d74f   0x00000001   PAD
    0x2000d750   0x000002a8   Zero   RW         7290    .bss                ssnp_for_app.o
    0x2000d9f8   0x00001a40   Zero   RW         7558    .bss                tbc.o
    0x2000f438   0x00000800   Zero   RW         4489    STACK               startup_stm32f10x_cl.o


==============================================================================

Image component sizes


      Code (inc. data)   RO Data    RW Data    ZI Data      Debug   Object Name

       156         24          0          6          0       1858   alias_map.o
       546         40          0          8          0       6579   alias_state.o
       638        116          0          0          0      12247   api_lib.o
       948        124          0          0          0      11045   api_msg.o
         0          0          0          0          0         32   core_cm3.o
        42          0          0          0          0        284   cpu_a.o
      1802        602          0          4          0      13139   dp.o
      2674       1014          0         15          0      17704   ethbcp.o
       822        142          0         12       9216       6428   ethernetif.o
      1120         98          0          1          0       7472   i2c_fram.o
         6          0          0          0          0        502   inet_chksum.o
        28          0          0          0          0        906   init.o
       128         20          0          0        256     324650   main.o
       848         86          0         16      10268       4323   mem.o
       184         30         48          0      15563       2557   memp.o
       152         24          0          0          0       1547   misc.o
       106          0          0          0          0       2219   netbuf.o
       142         50          0          9          0       2496   netif.o
        12          0          0          0          0       2477   os_apphooks.o
      2576        416        256         96       4312      23482   os_core.o
       164         32          0          0          0        340   os_cpu_a.o
       356         24          0          2          0      30578   os_cpu_c.o
       348        230        116          0          0       3430   os_dbg.o
        88         14          0          0          0        558   os_flag.o
       394         18          0          0          0       3205   os_mem.o
      1082         54          0          0          0       5707   os_q.o
       658         36          0          0          0       3297   os_sem.o
       874         66          0          0          0       5320   os_task.o
       288         32          0          0          0       1876   os_time.o
       648        132          0          0          0       3651   os_tmr.o
       798         34          0          0          0       4801   pbuf.o
      1618        432         66          4          0      10259   sdp.o
       504        140          0         12          0       3956   ssnp.o
      1616        366          0         14        680      13483   ssnp_for_app.o
        36          8        336          0       2048        852   startup_stm32f10x_cl.o
      1584        134          0         16          0      13951   stm32_eth.o
       430         12          0          0          0       3354   stm32f10x_gpio.o
        64          6          0          0          0       3521   stm32f10x_it.o
       636         72          0         20          0       8537   stm32f10x_rcc.o
       258         42          0          0          0       4111   stm32f10x_tim.o
       490          6          0          0          0       7353   stm32f10x_usart.o
       780         90          4          4      11643       8857   sys_arch.o
       372         32          0         20          0       2009   system_stm32f10x.o
      2012        444          0          0       6720      29515   tbc.o
       454         24          0          4          0       4028   timer.o
      1054        298          0          4          0       8056   tp.o
      1220        522          0         30       3508     316401   uctsk_ssnp_tbc.o
       236         20          0          0         43       5982   upcomputer.o

    ----------------------------------------------------------------------
     32050       6106        860        304      64260     948935   Object Totals
         0          0         32          0          0          0   (incl. Generated)
        58          0          2          7          3          1   (incl. Padding)

    ----------------------------------------------------------------------

      Code (inc. data)   RO Data    RW Data    ZI Data      Debug   Library Member Name

        92          0          0          0          0          0   __dczerorl2.o
         0          0          0          0          0          0   entry.o
         8          4          0          0          0          0   entry2.o
         4          0          0          0          0          0   entry5.o
         8          4          0          0          0          0   entry7.o
        30          0          0          0          0          0   handlers.o
        36          8          0          0          0         68   init.o
         0          0          0          0          0          0   iusefp.o
        30          0          0          0          0         68   llshl.o
        36          0          0          0          0         68   llsshr.o
        32          0          0          0          0         68   llushr.o
        36          0          0          0          0         68   memcpya.o
        38          0          0          0          0        108   memseta.o
      2204         92          0          0          0        460   printfa.o
         0          0          0          4          0          0   stdout.o
        44          0          0          0          0         80   uidiv.o
       102          0          0          0          0         92   uldiv.o
        40          2          0          0          0         68   cdrcmple.o
       330          0          0          0          0        148   dadd.o
       222          0          0          0          0        100   ddiv.o
       194          0          0          0          0        184   depilogue.o
        48          0          0          0          0         68   dfixul.o
       226          0          0          0          0         96   dmul.o

    ----------------------------------------------------------------------
      3766        110          0          4          0       1744   Library Totals
         6          0          0          0          0          0   (incl. Padding)

    ----------------------------------------------------------------------

      Code (inc. data)   RO Data    RW Data    ZI Data      Debug   Library Name

      2700        108          0          4          0       1080   mc_w.l
      1060          2          0          0          0        664   mf_w.l

    ----------------------------------------------------------------------
      3766        110          0          4          0       1744   Library Totals

    ----------------------------------------------------------------------

==============================================================================


      Code (inc. data)   RO Data    RW Data    ZI Data      Debug   

     35816       6216        860        308      64260     932532   Grand Totals
     35816       6216        860         32      64260     932532   ELF Image Totals (compressed)
     35816       6216        860         32          0          0   ROM Totals

==============================================================================

    Total RO  Size (Code + RO Data)                36676 (  35.82kB)
    Total RW  Size (RW Data + ZI Data)             64568 (  63.05kB)
    Total ROM Size (Code + RO Data + RW Data)      36708 (  35.85kB)

==============================================================================

